;--------------------------------------------------------
; File Created by SDCC : free open source ANSI-C Compiler
; Version 4.1.0 #12072 (MINGW32)
;--------------------------------------------------------
	.module main
	.optsdcc -mgbz80
	
;--------------------------------------------------------
; Public variables in this module
;--------------------------------------------------------
	.globl _main
	.globl _setSpriteData
	.globl _setSpritePosition
	.globl _performantdelay
	.globl _set_sprite_data
	.globl _set_bkg_tiles
	.globl _set_bkg_data
	.globl _wait_vbl_done
	.globl _frame
	.globl _TILESETSLED
	.globl _TILESETWALKER_126_150
	.globl _TILESETWALKER_101_125
	.globl _TILESETWALKER_76_100
	.globl _TILESETWALKER_51_75
	.globl _TILESETWALKER_26_50
	.globl _TILESETWALKER_1_25
	.globl _WALKER_TILEMAP
	.globl _BACKGROUNDTILEMAP
	.globl _TILESETBACKGROUND
;--------------------------------------------------------
; special function registers
;--------------------------------------------------------
;--------------------------------------------------------
; ram data
;--------------------------------------------------------
	.area _DATA
_frame::
	.ds 1
;--------------------------------------------------------
; absolute external ram data
;--------------------------------------------------------
	.area _DABS (ABS)
;--------------------------------------------------------
; global & static initialisations
;--------------------------------------------------------
	.area _HOME
	.area _GSINIT
	.area _GSFINAL
	.area _GSINIT
;main.c:26: UINT8 frame = 1;
	ld	hl, #_frame
	ld	(hl), #0x01
;--------------------------------------------------------
; Home
;--------------------------------------------------------
	.area _HOME
	.area _HOME
;--------------------------------------------------------
; code
;--------------------------------------------------------
	.area _CODE
;main.c:28: void performantdelay(UINT8 numloops){
;	---------------------------------
; Function performantdelay
; ---------------------------------
_performantdelay::
;main.c:30: for(i = 0; i < numloops; i++){
	ld	c, #0x00
00103$:
	ld	a, c
	ldhl	sp,	#2
	sub	a, (hl)
	ret	NC
;main.c:31: wait_vbl_done();
	call	_wait_vbl_done
;main.c:30: for(i = 0; i < numloops; i++){
	inc	c
;main.c:33: }
	jr	00103$
_TILESETBACKGROUND:
	.db #0x00	; 0
	.db #0x00	; 0
	.db #0x00	; 0
	.db #0x00	; 0
	.db #0x00	; 0
	.db #0x00	; 0
	.db #0x00	; 0
	.db #0x00	; 0
	.db #0x00	; 0
	.db #0x00	; 0
	.db #0x00	; 0
	.db #0x00	; 0
	.db #0x00	; 0
	.db #0x00	; 0
	.db #0x00	; 0
	.db #0x00	; 0
	.db #0x0f	; 15
	.db #0x0f	; 15
	.db #0x0f	; 15
	.db #0x0f	; 15
	.db #0x0f	; 15
	.db #0x0f	; 15
	.db #0x0f	; 15
	.db #0x07	; 7
	.db #0x0f	; 15
	.db #0x07	; 7
	.db #0x07	; 7
	.db #0x07	; 7
	.db #0x07	; 7
	.db #0x03	; 3
	.db #0x07	; 7
	.db #0x03	; 3
	.db #0xff	; 255
	.db #0xff	; 255
	.db #0xff	; 255
	.db #0xff	; 255
	.db #0xff	; 255
	.db #0xff	; 255
	.db #0xff	; 255
	.db #0xff	; 255
	.db #0xff	; 255
	.db #0xff	; 255
	.db #0xff	; 255
	.db #0xff	; 255
	.db #0xff	; 255
	.db #0xff	; 255
	.db #0xff	; 255
	.db #0xff	; 255
	.db #0xf8	; 248
	.db #0xf0	; 240
	.db #0xf8	; 248
	.db #0xf0	; 240
	.db #0xf0	; 240
	.db #0xf0	; 240
	.db #0xf0	; 240
	.db #0xe0	; 224
	.db #0xf0	; 240
	.db #0xe0	; 224
	.db #0xe0	; 224
	.db #0xe0	; 224
	.db #0xe0	; 224
	.db #0xc0	; 192
	.db #0xc0	; 192
	.db #0xc0	; 192
	.db #0x03	; 3
	.db #0x03	; 3
	.db #0x03	; 3
	.db #0x01	; 1
	.db #0x01	; 1
	.db #0x01	; 1
	.db #0x01	; 1
	.db #0x01	; 1
	.db #0x01	; 1
	.db #0x00	; 0
	.db #0x00	; 0
	.db #0x00	; 0
	.db #0x00	; 0
	.db #0x00	; 0
	.db #0x00	; 0
	.db #0x00	; 0
	.db #0xff	; 255
	.db #0xff	; 255
	.db #0xff	; 255
	.db #0xff	; 255
	.db #0xff	; 255
	.db #0xff	; 255
	.db #0xff	; 255
	.db #0xff	; 255
	.db #0xff	; 255
	.db #0xff	; 255
	.db #0xff	; 255
	.db #0x7f	; 127
	.db #0x7f	; 127
	.db #0x7f	; 127
	.db #0x7f	; 127
	.db #0x3f	; 63
	.db #0xff	; 255
	.db #0xff	; 255
	.db #0xff	; 255
	.db #0xff	; 255
	.db #0xff	; 255
	.db #0xff	; 255
	.db #0xff	; 255
	.db #0xfe	; 254
	.db #0xff	; 255
	.db #0xfe	; 254
	.db #0xfe	; 254
	.db #0xfc	; 252
	.db #0xfc	; 252
	.db #0xf8	; 248
	.db #0xf8	; 248
	.db #0xf8	; 248
	.db #0xc0	; 192
	.db #0x80	; 128
	.db #0x80	; 128
	.db #0x80	; 128
	.db #0x80	; 128
	.db #0x00	; 0
	.db #0x00	; 0
	.db #0x00	; 0
	.db #0x00	; 0
	.db #0x00	; 0
	.db #0x00	; 0
	.db #0x00	; 0
	.db #0x00	; 0
	.db #0x00	; 0
	.db #0x00	; 0
	.db #0x00	; 0
	.db #0x3f	; 63
	.db #0x3f	; 63
	.db #0x1f	; 31
	.db #0x1f	; 31
	.db #0x0f	; 15
	.db #0x0f	; 15
	.db #0x0f	; 15
	.db #0x07	; 7
	.db #0x07	; 7
	.db #0x03	; 3
	.db #0x03	; 3
	.db #0x01	; 1
	.db #0x00	; 0
	.db #0x00	; 0
	.db #0x00	; 0
	.db #0x00	; 0
	.db #0xff	; 255
	.db #0xff	; 255
	.db #0xff	; 255
	.db #0xff	; 255
	.db #0xff	; 255
	.db #0xff	; 255
	.db #0xff	; 255
	.db #0xff	; 255
	.db #0xff	; 255
	.db #0xff	; 255
	.db #0xff	; 255
	.db #0xff	; 255
	.db #0xff	; 255
	.db #0xff	; 255
	.db #0x7f	; 127
	.db #0x7f	; 127
	.db #0xff	; 255
	.db #0xff	; 255
	.db #0xff	; 255
	.db #0xff	; 255
	.db #0xff	; 255
	.db #0xff	; 255
	.db #0xff	; 255
	.db #0xff	; 255
	.db #0xff	; 255
	.db #0xff	; 255
	.db #0xfe	; 254
	.db #0xfe	; 254
	.db #0xfc	; 252
	.db #0xf8	; 248
	.db #0xf8	; 248
	.db #0xf0	; 240
	.db #0xf8	; 248
	.db #0xf0	; 240
	.db #0xf0	; 240
	.db #0xe0	; 224
	.db #0xe0	; 224
	.db #0xc0	; 192
	.db #0xc0	; 192
	.db #0x80	; 128
	.db #0x80	; 128
	.db #0x00	; 0
	.db #0x00	; 0
	.db #0x00	; 0
	.db #0x00	; 0
	.db #0x00	; 0
	.db #0x00	; 0
	.db #0x00	; 0
	.db #0x3f	; 63
	.db #0x1f	; 31
	.db #0x0f	; 15
	.db #0x0f	; 15
	.db #0x07	; 7
	.db #0x03	; 3
	.db #0x01	; 1
	.db #0x00	; 0
	.db #0x00	; 0
	.db #0x00	; 0
	.db #0x00	; 0
	.db #0x00	; 0
	.db #0x00	; 0
	.db #0x00	; 0
	.db #0x00	; 0
	.db #0x00	; 0
	.db #0xff	; 255
	.db #0xff	; 255
	.db #0xff	; 255
	.db #0xff	; 255
	.db #0xff	; 255
	.db #0xff	; 255
	.db #0xff	; 255
	.db #0xff	; 255
	.db #0x3f	; 63
	.db #0x1f	; 31
	.db #0x07	; 7
	.db #0x03	; 3
	.db #0x00	; 0
	.db #0x00	; 0
	.db #0x00	; 0
	.db #0x00	; 0
	.db #0xff	; 255
	.db #0xff	; 255
	.db #0xff	; 255
	.db #0xff	; 255
	.db #0xff	; 255
	.db #0xff	; 255
	.db #0xff	; 255
	.db #0xff	; 255
	.db #0xff	; 255
	.db #0xff	; 255
	.db #0xff	; 255
	.db #0xff	; 255
	.db #0x3f	; 63
	.db #0x00	; 0
	.db #0x00	; 0
	.db #0x00	; 0
	.db #0xff	; 255
	.db #0xff	; 255
	.db #0xff	; 255
	.db #0xff	; 255
	.db #0xff	; 255
	.db #0xff	; 255
	.db #0xff	; 255
	.db #0xff	; 255
	.db #0xff	; 255
	.db #0xff	; 255
	.db #0xff	; 255
	.db #0xfc	; 252
	.db #0xe0	; 224
	.db #0x00	; 0
	.db #0x00	; 0
	.db #0x00	; 0
	.db #0xff	; 255
	.db #0xff	; 255
	.db #0xff	; 255
	.db #0xff	; 255
	.db #0xff	; 255
	.db #0xfe	; 254
	.db #0xfc	; 252
	.db #0xf8	; 248
	.db #0xe0	; 224
	.db #0xc0	; 192
	.db #0x00	; 0
	.db #0x00	; 0
	.db #0x00	; 0
	.db #0x00	; 0
	.db #0x00	; 0
	.db #0x00	; 0
	.db #0xe0	; 224
	.db #0xc0	; 192
	.db #0xc0	; 192
	.db #0x80	; 128
	.db #0x00	; 0
	.db #0x00	; 0
	.db #0x00	; 0
	.db #0x00	; 0
	.db #0x00	; 0
	.db #0x00	; 0
	.db #0x00	; 0
	.db #0x00	; 0
	.db #0x00	; 0
	.db #0x00	; 0
	.db #0x00	; 0
	.db #0x00	; 0
	.db #0x00	; 0
	.db #0x00	; 0
	.db #0x00	; 0
	.db #0x00	; 0
	.db #0x00	; 0
	.db #0x00	; 0
	.db #0xff	; 255
	.db #0xff	; 255
	.db #0xff	; 255
	.db #0xff	; 255
	.db #0xff	; 255
	.db #0xff	; 255
	.db #0xff	; 255
	.db #0xff	; 255
	.db #0xff	; 255
	.db #0xff	; 255
	.db #0xff	; 255
	.db #0xff	; 255
	.db #0xff	; 255
	.db #0xff	; 255
	.db #0xff	; 255
	.db #0xff	; 255
	.db #0xff	; 255
	.db #0xff	; 255
	.db #0x00	; 0
	.db #0xff	; 255
	.db #0x00	; 0
	.db #0xff	; 255
	.db #0x00	; 0
	.db #0xff	; 255
	.db #0x00	; 0
	.db #0xff	; 255
	.db #0x00	; 0
	.db #0xff	; 255
	.db #0x00	; 0
	.db #0xff	; 255
	.db #0x00	; 0
	.db #0xff	; 255
	.db #0x00	; 0
	.db #0xff	; 255
	.db #0x00	; 0
	.db #0xff	; 255
	.db #0x00	; 0
	.db #0xff	; 255
	.db #0x00	; 0
	.db #0xff	; 255
	.db #0x00	; 0
	.db #0xff	; 255
_BACKGROUNDTILEMAP:
	.db #0x14	; 20
	.db #0x14	; 20
	.db #0x14	; 20
	.db #0x14	; 20
	.db #0x14	; 20
	.db #0x14	; 20
	.db #0x14	; 20
	.db #0x14	; 20
	.db #0x14	; 20
	.db #0x14	; 20
	.db #0x14	; 20
	.db #0x14	; 20
	.db #0x14	; 20
	.db #0x14	; 20
	.db #0x14	; 20
	.db #0x14	; 20
	.db #0x14	; 20
	.db #0x14	; 20
	.db #0x14	; 20
	.db #0x14	; 20
	.db #0x14	; 20
	.db #0x14	; 20
	.db #0x14	; 20
	.db #0x14	; 20
	.db #0x14	; 20
	.db #0x14	; 20
	.db #0x14	; 20
	.db #0x14	; 20
	.db #0x14	; 20
	.db #0x14	; 20
	.db #0x14	; 20
	.db #0x14	; 20
	.db #0x14	; 20
	.db #0x14	; 20
	.db #0x14	; 20
	.db #0x14	; 20
	.db #0x14	; 20
	.db #0x14	; 20
	.db #0x14	; 20
	.db #0x14	; 20
	.db #0x14	; 20
	.db #0x14	; 20
	.db #0x14	; 20
	.db #0x14	; 20
	.db #0x14	; 20
	.db #0x14	; 20
	.db #0x14	; 20
	.db #0x14	; 20
	.db #0x14	; 20
	.db #0x14	; 20
	.db #0x14	; 20
	.db #0x14	; 20
	.db #0x14	; 20
	.db #0x14	; 20
	.db #0x14	; 20
	.db #0x14	; 20
	.db #0x14	; 20
	.db #0x14	; 20
	.db #0x14	; 20
	.db #0x14	; 20
	.db #0x14	; 20
	.db #0x14	; 20
	.db #0x14	; 20
	.db #0x14	; 20
	.db #0x14	; 20
	.db #0x14	; 20
	.db #0x14	; 20
	.db #0x14	; 20
	.db #0x14	; 20
	.db #0x14	; 20
	.db #0x14	; 20
	.db #0x14	; 20
	.db #0x14	; 20
	.db #0x14	; 20
	.db #0x14	; 20
	.db #0x14	; 20
	.db #0x14	; 20
	.db #0x14	; 20
	.db #0x14	; 20
	.db #0x14	; 20
	.db #0x00	; 0
	.db #0x00	; 0
	.db #0x00	; 0
	.db #0x00	; 0
	.db #0x00	; 0
	.db #0x00	; 0
	.db #0x00	; 0
	.db #0x00	; 0
	.db #0x00	; 0
	.db #0x00	; 0
	.db #0x01	; 1
	.db #0x02	; 2
	.db #0x02	; 2
	.db #0x02	; 2
	.db #0x02	; 2
	.db #0x02	; 2
	.db #0x02	; 2
	.db #0x02	; 2
	.db #0x02	; 2
	.db #0x03	; 3
	.db #0x00	; 0
	.db #0x00	; 0
	.db #0x00	; 0
	.db #0x00	; 0
	.db #0x00	; 0
	.db #0x00	; 0
	.db #0x00	; 0
	.db #0x00	; 0
	.db #0x00	; 0
	.db #0x00	; 0
	.db #0x04	; 4
	.db #0x05	; 5
	.db #0x02	; 2
	.db #0x02	; 2
	.db #0x02	; 2
	.db #0x02	; 2
	.db #0x02	; 2
	.db #0x02	; 2
	.db #0x06	; 6
	.db #0x07	; 7
	.db #0x00	; 0
	.db #0x00	; 0
	.db #0x00	; 0
	.db #0x00	; 0
	.db #0x00	; 0
	.db #0x00	; 0
	.db #0x00	; 0
	.db #0x00	; 0
	.db #0x00	; 0
	.db #0x00	; 0
	.db #0x00	; 0
	.db #0x08	; 8
	.db #0x09	; 9
	.db #0x02	; 2
	.db #0x02	; 2
	.db #0x02	; 2
	.db #0x02	; 2
	.db #0x0a	; 10
	.db #0x0b	; 11
	.db #0x00	; 0
	.db #0x00	; 0
	.db #0x00	; 0
	.db #0x00	; 0
	.db #0x00	; 0
	.db #0x00	; 0
	.db #0x00	; 0
	.db #0x00	; 0
	.db #0x00	; 0
	.db #0x00	; 0
	.db #0x00	; 0
	.db #0x00	; 0
	.db #0x00	; 0
	.db #0x0c	; 12
	.db #0x0d	; 13
	.db #0x0e	; 14
	.db #0x0f	; 15
	.db #0x10	; 16
	.db #0x11	; 17
	.db #0x00	; 0
	.db #0x00	; 0
	.db #0x00	; 0
	.db #0x00	; 0
	.db #0x00	; 0
	.db #0x00	; 0
	.db #0x00	; 0
	.db #0x00	; 0
	.db #0x00	; 0
	.db #0x00	; 0
	.db #0x17	; 23
	.db #0x00	; 0
	.db #0x00	; 0
	.db #0x00	; 0
	.db #0x00	; 0
	.db #0x00	; 0
	.db #0x00	; 0
	.db #0x00	; 0
	.db #0x00	; 0
	.db #0x00	; 0
	.db #0x00	; 0
	.db #0x00	; 0
	.db #0x18	; 24
	.db #0x19	; 25
	.db #0x1a	; 26
	.db #0x1b	; 27
	.db #0x1c	; 28
	.db #0x1d	; 29
	.db #0x1e	; 30
	.db #0x1f	; 31
	.db #0x00	; 0
	.db #0x00	; 0
	.db #0x00	; 0
	.db #0x00	; 0
	.db #0x00	; 0
	.db #0x00	; 0
	.db #0x00	; 0
	.db #0x00	; 0
	.db #0x00	; 0
	.db #0x00	; 0
	.db #0x00	; 0
	.db #0x00	; 0
	.db #0x20	; 32
	.db #0x21	; 33
	.db #0x22	; 34
	.db #0x23	; 35
	.db #0x24	; 36
	.db #0x25	; 37
	.db #0x26	; 38
	.db #0x12	; 18
	.db #0x12	; 18
	.db #0x12	; 18
	.db #0x12	; 18
	.db #0x12	; 18
	.db #0x12	; 18
	.db #0x12	; 18
	.db #0x12	; 18
	.db #0x12	; 18
	.db #0x12	; 18
	.db #0x12	; 18
	.db #0x12	; 18
	.db #0x12	; 18
	.db #0x02	; 2
	.db #0x02	; 2
	.db #0x02	; 2
	.db #0x02	; 2
	.db #0x02	; 2
	.db #0x02	; 2
	.db #0x02	; 2
	.db #0x02	; 2
	.db #0x02	; 2
	.db #0x02	; 2
	.db #0x02	; 2
	.db #0x02	; 2
	.db #0x02	; 2
	.db #0x02	; 2
	.db #0x02	; 2
	.db #0x02	; 2
	.db #0x02	; 2
	.db #0x02	; 2
	.db #0x02	; 2
	.db #0x02	; 2
	.db #0x13	; 19
	.db #0x13	; 19
	.db #0x13	; 19
	.db #0x13	; 19
	.db #0x13	; 19
	.db #0x13	; 19
	.db #0x13	; 19
	.db #0x13	; 19
	.db #0x13	; 19
	.db #0x13	; 19
	.db #0x13	; 19
	.db #0x13	; 19
	.db #0x13	; 19
	.db #0x13	; 19
	.db #0x13	; 19
	.db #0x13	; 19
	.db #0x13	; 19
	.db #0x13	; 19
	.db #0x13	; 19
	.db #0x13	; 19
	.db #0x14	; 20
	.db #0x14	; 20
	.db #0x14	; 20
	.db #0x14	; 20
	.db #0x14	; 20
	.db #0x14	; 20
	.db #0x14	; 20
	.db #0x14	; 20
	.db #0x14	; 20
	.db #0x14	; 20
	.db #0x14	; 20
	.db #0x14	; 20
	.db #0x14	; 20
	.db #0x14	; 20
	.db #0x14	; 20
	.db #0x14	; 20
	.db #0x14	; 20
	.db #0x14	; 20
	.db #0x14	; 20
	.db #0x14	; 20
	.db #0x14	; 20
	.db #0x14	; 20
	.db #0x14	; 20
	.db #0x14	; 20
	.db #0x14	; 20
	.db #0x14	; 20
	.db #0x14	; 20
	.db #0x14	; 20
	.db #0x14	; 20
	.db #0x14	; 20
	.db #0x14	; 20
	.db #0x14	; 20
	.db #0x14	; 20
	.db #0x14	; 20
	.db #0x14	; 20
	.db #0x14	; 20
	.db #0x14	; 20
	.db #0x14	; 20
	.db #0x14	; 20
	.db #0x14	; 20
	.db #0x14	; 20
	.db #0x14	; 20
	.db #0x14	; 20
	.db #0x14	; 20
	.db #0x14	; 20
	.db #0x14	; 20
	.db #0x14	; 20
	.db #0x14	; 20
	.db #0x14	; 20
	.db #0x14	; 20
	.db #0x14	; 20
	.db #0x14	; 20
	.db #0x14	; 20
	.db #0x14	; 20
	.db #0x14	; 20
	.db #0x14	; 20
	.db #0x14	; 20
	.db #0x14	; 20
	.db #0x14	; 20
	.db #0x14	; 20
	.db #0x14	; 20
	.db #0x14	; 20
	.db #0x14	; 20
	.db #0x14	; 20
	.db #0x14	; 20
	.db #0x14	; 20
	.db #0x14	; 20
	.db #0x14	; 20
	.db #0x14	; 20
	.db #0x14	; 20
	.db #0x14	; 20
	.db #0x14	; 20
	.db #0x14	; 20
	.db #0x14	; 20
	.db #0x14	; 20
	.db #0x14	; 20
	.db #0x14	; 20
	.db #0x14	; 20
	.db #0x14	; 20
	.db #0x14	; 20
	.db #0x15	; 21
	.db #0x16	; 22
	.db #0x14	; 20
	.db #0x14	; 20
	.db #0x14	; 20
	.db #0x14	; 20
	.db #0x14	; 20
	.db #0x14	; 20
	.db #0x14	; 20
	.db #0x14	; 20
	.db #0x14	; 20
	.db #0x14	; 20
	.db #0x14	; 20
	.db #0x14	; 20
	.db #0x14	; 20
	.db #0x14	; 20
	.db #0x14	; 20
	.db #0x14	; 20
	.db #0x14	; 20
	.db #0x14	; 20
_WALKER_TILEMAP:
	.db #0x00	; 0
	.db #0x01	; 1
	.db #0x02	; 2
	.db #0x00	; 0
	.db #0x0b	; 11
	.db #0x0c	; 12
	.db #0x14	; 20
	.db #0x15	; 21
	.db #0x16	; 22
	.db #0x00	; 0
	.db #0x03	; 3
	.db #0x04	; 4
	.db #0x0d	; 13
	.db #0x0e	; 14
	.db #0x0f	; 15
	.db #0x17	; 23
	.db #0x18	; 24
	.db #0x19	; 25
	.db #0x00	; 0
	.db #0x05	; 5
	.db #0x06	; 6
	.db #0x0d	; 13
	.db #0x10	; 16
	.db #0x11	; 17
	.db #0x1a	; 26
	.db #0x1b	; 27
	.db #0x00	; 0
	.db #0x00	; 0
	.db #0x07	; 7
	.db #0x08	; 8
	.db #0x0d	; 13
	.db #0x12	; 18
	.db #0x11	; 17
	.db #0x1c	; 28
	.db #0x1d	; 29
	.db #0x00	; 0
	.db #0x00	; 0
	.db #0x09	; 9
	.db #0x0a	; 10
	.db #0x0d	; 13
	.db #0x13	; 19
	.db #0x11	; 17
	.db #0x1e	; 30
	.db #0x1f	; 31
	.db #0x00	; 0
	.db #0x00	; 0
	.db #0x20	; 32
	.db #0x21	; 33
	.db #0x0d	; 13
	.db #0x26	; 38
	.db #0x27	; 39
	.db #0x2e	; 46
	.db #0x2f	; 47
	.db #0x00	; 0
	.db #0x00	; 0
	.db #0x20	; 32
	.db #0x22	; 34
	.db #0x00	; 0
	.db #0x28	; 40
	.db #0x27	; 39
	.db #0x30	; 48	'0'
	.db #0x31	; 49	'1'
	.db #0x00	; 0
	.db #0x00	; 0
	.db #0x20	; 32
	.db #0x23	; 35
	.db #0x00	; 0
	.db #0x29	; 41
	.db #0x2a	; 42
	.db #0x32	; 50	'2'
	.db #0x33	; 51	'3'
	.db #0x00	; 0
	.db #0x00	; 0
	.db #0x20	; 32
	.db #0x24	; 36
	.db #0x00	; 0
	.db #0x2b	; 43
	.db #0x2c	; 44
	.db #0x34	; 52	'4'
	.db #0x35	; 53	'5'
	.db #0x00	; 0
	.db #0x00	; 0
	.db #0x20	; 32
	.db #0x25	; 37
	.db #0x00	; 0
	.db #0x2d	; 45
	.db #0x2c	; 44
	.db #0x36	; 54	'6'
	.db #0x37	; 55	'7'
	.db #0x00	; 0
	.db #0x00	; 0
	.db #0x38	; 56	'8'
	.db #0x39	; 57	'9'
	.db #0x00	; 0
	.db #0x41	; 65	'A'
	.db #0x2c	; 44
	.db #0x47	; 71	'G'
	.db #0x48	; 72	'H'
	.db #0x00	; 0
	.db #0x00	; 0
	.db #0x3a	; 58
	.db #0x3b	; 59
	.db #0x00	; 0
	.db #0x42	; 66	'B'
	.db #0x2c	; 44
	.db #0x49	; 73	'I'
	.db #0x4a	; 74	'J'
	.db #0x00	; 0
	.db #0x00	; 0
	.db #0x3c	; 60
	.db #0x3d	; 61
	.db #0x00	; 0
	.db #0x43	; 67	'C'
	.db #0x00	; 0
	.db #0x4b	; 75	'K'
	.db #0x4c	; 76	'L'
	.db #0x00	; 0
	.db #0x00	; 0
	.db #0x3e	; 62
	.db #0x3f	; 63
	.db #0x00	; 0
	.db #0x44	; 68	'D'
	.db #0x00	; 0
	.db #0x4d	; 77	'M'
	.db #0x4e	; 78	'N'
	.db #0x00	; 0
	.db #0x00	; 0
	.db #0x3e	; 62
	.db #0x40	; 64
	.db #0x00	; 0
	.db #0x45	; 69	'E'
	.db #0x46	; 70	'F'
	.db #0x4f	; 79	'O'
	.db #0x50	; 80	'P'
	.db #0x51	; 81	'Q'
	.db #0x00	; 0
	.db #0x52	; 82	'R'
	.db #0x53	; 83	'S'
	.db #0x00	; 0
	.db #0x58	; 88	'X'
	.db #0x59	; 89	'Y'
	.db #0x61	; 97	'a'
	.db #0x62	; 98	'b'
	.db #0x63	; 99	'c'
	.db #0x00	; 0
	.db #0x52	; 82	'R'
	.db #0x54	; 84	'T'
	.db #0x00	; 0
	.db #0x5a	; 90	'Z'
	.db #0x5b	; 91
	.db #0x64	; 100	'd'
	.db #0x65	; 101	'e'
	.db #0x63	; 99	'c'
	.db #0x00	; 0
	.db #0x3c	; 60
	.db #0x55	; 85	'U'
	.db #0x00	; 0
	.db #0x5c	; 92
	.db #0x5d	; 93
	.db #0x66	; 102	'f'
	.db #0x67	; 103	'g'
	.db #0x68	; 104	'h'
	.db #0x00	; 0
	.db #0x3a	; 58
	.db #0x56	; 86	'V'
	.db #0x00	; 0
	.db #0x5e	; 94
	.db #0x5d	; 93
	.db #0x69	; 105	'i'
	.db #0x6a	; 106	'j'
	.db #0x6b	; 107	'k'
	.db #0x00	; 0
	.db #0x3a	; 58
	.db #0x57	; 87	'W'
	.db #0x00	; 0
	.db #0x5f	; 95
	.db #0x60	; 96
	.db #0x6c	; 108	'l'
	.db #0x6d	; 109	'm'
	.db #0x6e	; 110	'n'
	.db #0x00	; 0
	.db #0x38	; 56	'8'
	.db #0x6f	; 111	'o'
	.db #0x00	; 0
	.db #0x76	; 118	'v'
	.db #0x77	; 119	'w'
	.db #0x80	; 128
	.db #0x81	; 129
	.db #0x82	; 130
	.db #0x00	; 0
	.db #0x70	; 112	'p'
	.db #0x71	; 113	'q'
	.db #0x00	; 0
	.db #0x78	; 120	'x'
	.db #0x79	; 121	'y'
	.db #0x83	; 131
	.db #0x84	; 132
	.db #0x85	; 133
	.db #0x00	; 0
	.db #0x70	; 112	'p'
	.db #0x72	; 114	'r'
	.db #0x0d	; 13
	.db #0x7a	; 122	'z'
	.db #0x7b	; 123
	.db #0x86	; 134
	.db #0x87	; 135
	.db #0x88	; 136
	.db #0x00	; 0
	.db #0x05	; 5
	.db #0x73	; 115	's'
	.db #0x0d	; 13
	.db #0x7c	; 124
	.db #0x7d	; 125
	.db #0x89	; 137
	.db #0x8a	; 138
	.db #0x8b	; 139
	.db #0x00	; 0
	.db #0x74	; 116	't'
	.db #0x75	; 117	'u'
	.db #0x0d	; 13
	.db #0x7e	; 126
	.db #0x7f	; 127
	.db #0x8c	; 140
	.db #0x8d	; 141
	.db #0x8e	; 142
	.db #0x00	; 0
	.db #0x01	; 1
	.db #0x02	; 2
	.db #0x09	; 9
	.db #0x0a	; 10
	.db #0x0b	; 11
	.db #0x18	; 24
	.db #0x19	; 25
	.db #0x1a	; 26
	.db #0x00	; 0
	.db #0x01	; 1
	.db #0x03	; 3
	.db #0x0c	; 12
	.db #0x0d	; 13
	.db #0x0e	; 14
	.db #0x1b	; 27
	.db #0x1c	; 28
	.db #0x1d	; 29
	.db #0x00	; 0
	.db #0x01	; 1
	.db #0x04	; 4
	.db #0x0f	; 15
	.db #0x10	; 16
	.db #0x11	; 17
	.db #0x1e	; 30
	.db #0x1f	; 31
	.db #0x20	; 32
	.db #0x00	; 0
	.db #0x05	; 5
	.db #0x06	; 6
	.db #0x12	; 18
	.db #0x13	; 19
	.db #0x14	; 20
	.db #0x21	; 33
	.db #0x22	; 34
	.db #0x00	; 0
	.db #0x00	; 0
	.db #0x07	; 7
	.db #0x08	; 8
	.db #0x15	; 21
	.db #0x16	; 22
	.db #0x17	; 23
	.db #0x23	; 35
	.db #0x24	; 36
	.db #0x00	; 0
	.db #0x00	; 0
	.db #0x25	; 37
	.db #0x26	; 38
	.db #0x2e	; 46
	.db #0x2f	; 47
	.db #0x17	; 23
	.db #0x36	; 54	'6'
	.db #0x37	; 55	'7'
	.db #0x00	; 0
	.db #0x00	; 0
	.db #0x25	; 37
	.db #0x27	; 39
	.db #0x2e	; 46
	.db #0x30	; 48	'0'
	.db #0x17	; 23
	.db #0x38	; 56	'8'
	.db #0x39	; 57	'9'
	.db #0x00	; 0
	.db #0x00	; 0
	.db #0x28	; 40
	.db #0x29	; 41
	.db #0x12	; 18
	.db #0x31	; 49	'1'
	.db #0x32	; 50	'2'
	.db #0x3a	; 58
	.db #0x3b	; 59
	.db #0x00	; 0
	.db #0x00	; 0
	.db #0x2a	; 42
	.db #0x2b	; 43
	.db #0x09	; 9
	.db #0x33	; 51	'3'
	.db #0x32	; 50	'2'
	.db #0x3c	; 60
	.db #0x3d	; 61
	.db #0x00	; 0
	.db #0x00	; 0
	.db #0x2c	; 44
	.db #0x2d	; 45
	.db #0x34	; 52	'4'
	.db #0x35	; 53	'5'
	.db #0x32	; 50	'2'
	.db #0x3e	; 62
	.db #0x3f	; 63
	.db #0x00	; 0
	.db #0x00	; 0
	.db #0x40	; 64
	.db #0x41	; 65	'A'
	.db #0x00	; 0
	.db #0x4a	; 74	'J'
	.db #0x4b	; 75	'K'
	.db #0x51	; 81	'Q'
	.db #0x52	; 82	'R'
	.db #0x00	; 0
	.db #0x00	; 0
	.db #0x42	; 66	'B'
	.db #0x43	; 67	'C'
	.db #0x00	; 0
	.db #0x4c	; 76	'L'
	.db #0x4d	; 77	'M'
	.db #0x53	; 83	'S'
	.db #0x54	; 84	'T'
	.db #0x00	; 0
	.db #0x00	; 0
	.db #0x44	; 68	'D'
	.db #0x45	; 69	'E'
	.db #0x00	; 0
	.db #0x4e	; 78	'N'
	.db #0x00	; 0
	.db #0x55	; 85	'U'
	.db #0x56	; 86	'V'
	.db #0x00	; 0
	.db #0x00	; 0
	.db #0x46	; 70	'F'
	.db #0x47	; 71	'G'
	.db #0x00	; 0
	.db #0x4f	; 79	'O'
	.db #0x00	; 0
	.db #0x57	; 87	'W'
	.db #0x58	; 88	'X'
	.db #0x00	; 0
	.db #0x00	; 0
	.db #0x48	; 72	'H'
	.db #0x49	; 73	'I'
	.db #0x00	; 0
	.db #0x50	; 80	'P'
	.db #0x00	; 0
	.db #0x59	; 89	'Y'
	.db #0x5a	; 90	'Z'
	.db #0x00	; 0
	.db #0x00	; 0
	.db #0x5b	; 91
	.db #0x5c	; 92
	.db #0x00	; 0
	.db #0x65	; 101	'e'
	.db #0x00	; 0
	.db #0x6d	; 109	'm'
	.db #0x6e	; 110	'n'
	.db #0x00	; 0
	.db #0x00	; 0
	.db #0x5d	; 93
	.db #0x5e	; 94
	.db #0x00	; 0
	.db #0x66	; 102	'f'
	.db #0x00	; 0
	.db #0x6f	; 111	'o'
	.db #0x70	; 112	'p'
	.db #0x00	; 0
	.db #0x00	; 0
	.db #0x5f	; 95
	.db #0x60	; 96
	.db #0x00	; 0
	.db #0x67	; 103	'g'
	.db #0x68	; 104	'h'
	.db #0x71	; 113	'q'
	.db #0x72	; 114	'r'
	.db #0x00	; 0
	.db #0x00	; 0
	.db #0x61	; 97	'a'
	.db #0x62	; 98	'b'
	.db #0x00	; 0
	.db #0x69	; 105	'i'
	.db #0x6a	; 106	'j'
	.db #0x73	; 115	's'
	.db #0x74	; 116	't'
	.db #0x4d	; 77	'M'
	.db #0x00	; 0
	.db #0x63	; 99	'c'
	.db #0x64	; 100	'd'
	.db #0x00	; 0
	.db #0x6b	; 107	'k'
	.db #0x6c	; 108	'l'
	.db #0x75	; 117	'u'
	.db #0x76	; 118	'v'
	.db #0x4d	; 77	'M'
	.db #0x00	; 0
	.db #0x63	; 99	'c'
	.db #0x64	; 100	'd'
	.db #0x00	; 0
	.db #0x7d	; 125
	.db #0x7e	; 126
	.db #0x86	; 134
	.db #0x87	; 135
	.db #0x20	; 32
	.db #0x00	; 0
	.db #0x77	; 119	'w'
	.db #0x78	; 120	'x'
	.db #0x00	; 0
	.db #0x7f	; 127
	.db #0x80	; 128
	.db #0x88	; 136
	.db #0x89	; 137
	.db #0x4d	; 77	'M'
	.db #0x00	; 0
	.db #0x77	; 119	'w'
	.db #0x79	; 121	'y'
	.db #0x00	; 0
	.db #0x81	; 129
	.db #0x68	; 104	'h'
	.db #0x8a	; 138
	.db #0x8b	; 139
	.db #0x4d	; 77	'M'
	.db #0x00	; 0
	.db #0x7a	; 122	'z'
	.db #0x7b	; 123
	.db #0x00	; 0
	.db #0x82	; 130
	.db #0x83	; 131
	.db #0x8c	; 140
	.db #0x8d	; 141
	.db #0x4d	; 77	'M'
	.db #0x00	; 0
	.db #0x77	; 119	'w'
	.db #0x7c	; 124
	.db #0x34	; 52	'4'
	.db #0x84	; 132
	.db #0x85	; 133
	.db #0x8e	; 142
	.db #0x8f	; 143
	.db #0x4d	; 77	'M'
	.db #0x00	; 0
	.db #0x01	; 1
	.db #0x02	; 2
	.db #0x09	; 9
	.db #0x0a	; 10
	.db #0x0b	; 11
	.db #0x14	; 20
	.db #0x15	; 21
	.db #0x16	; 22
	.db #0x00	; 0
	.db #0x03	; 3
	.db #0x04	; 4
	.db #0x09	; 9
	.db #0x0c	; 12
	.db #0x0d	; 13
	.db #0x17	; 23
	.db #0x18	; 24
	.db #0x16	; 22
	.db #0x00	; 0
	.db #0x05	; 5
	.db #0x06	; 6
	.db #0x09	; 9
	.db #0x0e	; 14
	.db #0x0f	; 15
	.db #0x19	; 25
	.db #0x1a	; 26
	.db #0x00	; 0
	.db #0x00	; 0
	.db #0x05	; 5
	.db #0x07	; 7
	.db #0x09	; 9
	.db #0x10	; 16
	.db #0x11	; 17
	.db #0x1b	; 27
	.db #0x1c	; 28
	.db #0x00	; 0
	.db #0x00	; 0
	.db #0x05	; 5
	.db #0x08	; 8
	.db #0x00	; 0
	.db #0x12	; 18
	.db #0x13	; 19
	.db #0x1d	; 29
	.db #0x1e	; 30
	.db #0x00	; 0
	.db #0x00	; 0
	.db #0x05	; 5
	.db #0x1f	; 31
	.db #0x09	; 9
	.db #0x27	; 39
	.db #0x13	; 19
	.db #0x2c	; 44
	.db #0x2d	; 45
	.db #0x00	; 0
	.db #0x00	; 0
	.db #0x05	; 5
	.db #0x20	; 32
	.db #0x00	; 0
	.db #0x27	; 39
	.db #0x11	; 17
	.db #0x2e	; 46
	.db #0x2f	; 47
	.db #0x00	; 0
	.db #0x00	; 0
	.db #0x21	; 33
	.db #0x22	; 34
	.db #0x00	; 0
	.db #0x28	; 40
	.db #0x11	; 17
	.db #0x30	; 48	'0'
	.db #0x31	; 49	'1'
	.db #0x00	; 0
	.db #0x00	; 0
	.db #0x23	; 35
	.db #0x24	; 36
	.db #0x00	; 0
	.db #0x29	; 41
	.db #0x0d	; 13
	.db #0x32	; 50	'2'
	.db #0x33	; 51	'3'
	.db #0x00	; 0
	.db #0x00	; 0
	.db #0x25	; 37
	.db #0x26	; 38
	.db #0x00	; 0
	.db #0x2a	; 42
	.db #0x2b	; 43
	.db #0x34	; 52	'4'
	.db #0x35	; 53	'5'
	.db #0x00	; 0
	.db #0x00	; 0
	.db #0x36	; 54	'6'
	.db #0x37	; 55	'7'
	.db #0x00	; 0
	.db #0x3f	; 63
	.db #0x16	; 22
	.db #0x44	; 68	'D'
	.db #0x45	; 69	'E'
	.db #0x00	; 0
	.db #0x00	; 0
	.db #0x38	; 56	'8'
	.db #0x39	; 57	'9'
	.db #0x00	; 0
	.db #0x40	; 64
	.db #0x00	; 0
	.db #0x46	; 70	'F'
	.db #0x47	; 71	'G'
	.db #0x00	; 0
	.db #0x00	; 0
	.db #0x3a	; 58
	.db #0x3b	; 59
	.db #0x00	; 0
	.db #0x41	; 65	'A'
	.db #0x00	; 0
	.db #0x48	; 72	'H'
	.db #0x49	; 73	'I'
	.db #0x00	; 0
	.db #0x00	; 0
	.db #0x3c	; 60
	.db #0x3d	; 61
	.db #0x00	; 0
	.db #0x42	; 66	'B'
	.db #0x00	; 0
	.db #0x4a	; 74	'J'
	.db #0x4b	; 75	'K'
	.db #0x00	; 0
	.db #0x00	; 0
	.db #0x3c	; 60
	.db #0x3e	; 62
	.db #0x00	; 0
	.db #0x43	; 67	'C'
	.db #0x00	; 0
	.db #0x4c	; 76	'L'
	.db #0x4d	; 77	'M'
	.db #0x00	; 0
	.db #0x00	; 0
	.db #0x3c	; 60
	.db #0x4e	; 78	'N'
	.db #0x00	; 0
	.db #0x54	; 84	'T'
	.db #0x55	; 85	'U'
	.db #0x5e	; 94
	.db #0x5f	; 95
	.db #0x00	; 0
	.db #0x00	; 0
	.db #0x3a	; 58
	.db #0x4f	; 79	'O'
	.db #0x00	; 0
	.db #0x56	; 86	'V'
	.db #0x57	; 87	'W'
	.db #0x60	; 96
	.db #0x61	; 97	'a'
	.db #0x00	; 0
	.db #0x00	; 0
	.db #0x36	; 54	'6'
	.db #0x50	; 80	'P'
	.db #0x00	; 0
	.db #0x58	; 88	'X'
	.db #0x59	; 89	'Y'
	.db #0x62	; 98	'b'
	.db #0x63	; 99	'c'
	.db #0x16	; 22
	.db #0x00	; 0
	.db #0x51	; 81	'Q'
	.db #0x52	; 82	'R'
	.db #0x00	; 0
	.db #0x5a	; 90	'Z'
	.db #0x5b	; 91
	.db #0x64	; 100	'd'
	.db #0x65	; 101	'e'
	.db #0x66	; 102	'f'
	.db #0x00	; 0
	.db #0x25	; 37
	.db #0x53	; 83	'S'
	.db #0x00	; 0
	.db #0x5c	; 92
	.db #0x5d	; 93
	.db #0x67	; 103	'g'
	.db #0x68	; 104	'h'
	.db #0x69	; 105	'i'
	.db #0x00	; 0
	.db #0x6a	; 106	'j'
	.db #0x6b	; 107	'k'
	.db #0x00	; 0
	.db #0x74	; 116	't'
	.db #0x75	; 117	'u'
	.db #0x7e	; 126
	.db #0x7f	; 127
	.db #0x80	; 128
	.db #0x00	; 0
	.db #0x6c	; 108	'l'
	.db #0x6d	; 109	'm'
	.db #0x09	; 9
	.db #0x76	; 118	'v'
	.db #0x77	; 119	'w'
	.db #0x81	; 129
	.db #0x82	; 130
	.db #0x83	; 131
	.db #0x00	; 0
	.db #0x6e	; 110	'n'
	.db #0x6f	; 111	'o'
	.db #0x09	; 9
	.db #0x78	; 120	'x'
	.db #0x79	; 121	'y'
	.db #0x84	; 132
	.db #0x85	; 133
	.db #0x86	; 134
	.db #0x00	; 0
	.db #0x70	; 112	'p'
	.db #0x71	; 113	'q'
	.db #0x09	; 9
	.db #0x7a	; 122	'z'
	.db #0x7b	; 123
	.db #0x87	; 135
	.db #0x88	; 136
	.db #0x89	; 137
	.db #0x00	; 0
	.db #0x72	; 114	'r'
	.db #0x73	; 115	's'
	.db #0x09	; 9
	.db #0x7c	; 124
	.db #0x7d	; 125
	.db #0x8a	; 138
	.db #0x8b	; 139
	.db #0x89	; 137
	.db #0x00	; 0
	.db #0x01	; 1
	.db #0x02	; 2
	.db #0x09	; 9
	.db #0x0a	; 10
	.db #0x0b	; 11
	.db #0x16	; 22
	.db #0x17	; 23
	.db #0x18	; 24
	.db #0x00	; 0
	.db #0x01	; 1
	.db #0x03	; 3
	.db #0x0c	; 12
	.db #0x0d	; 13
	.db #0x0e	; 14
	.db #0x19	; 25
	.db #0x1a	; 26
	.db #0x1b	; 27
	.db #0x00	; 0
	.db #0x01	; 1
	.db #0x04	; 4
	.db #0x0c	; 12
	.db #0x0f	; 15
	.db #0x10	; 16
	.db #0x1c	; 28
	.db #0x1d	; 29
	.db #0x1e	; 30
	.db #0x00	; 0
	.db #0x05	; 5
	.db #0x06	; 6
	.db #0x11	; 17
	.db #0x12	; 18
	.db #0x13	; 19
	.db #0x1f	; 31
	.db #0x20	; 32
	.db #0x00	; 0
	.db #0x00	; 0
	.db #0x07	; 7
	.db #0x08	; 8
	.db #0x11	; 17
	.db #0x14	; 20
	.db #0x15	; 21
	.db #0x21	; 33
	.db #0x22	; 34
	.db #0x00	; 0
	.db #0x00	; 0
	.db #0x23	; 35
	.db #0x24	; 36
	.db #0x2d	; 45
	.db #0x2e	; 46
	.db #0x2f	; 47
	.db #0x34	; 52	'4'
	.db #0x35	; 53	'5'
	.db #0x00	; 0
	.db #0x00	; 0
	.db #0x25	; 37
	.db #0x26	; 38
	.db #0x00	; 0
	.db #0x30	; 48	'0'
	.db #0x00	; 0
	.db #0x36	; 54	'6'
	.db #0x37	; 55	'7'
	.db #0x00	; 0
	.db #0x00	; 0
	.db #0x27	; 39
	.db #0x28	; 40
	.db #0x00	; 0
	.db #0x31	; 49	'1'
	.db #0x00	; 0
	.db #0x38	; 56	'8'
	.db #0x39	; 57	'9'
	.db #0x00	; 0
	.db #0x00	; 0
	.db #0x29	; 41
	.db #0x2a	; 42
	.db #0x00	; 0
	.db #0x32	; 50	'2'
	.db #0x00	; 0
	.db #0x3a	; 58
	.db #0x3b	; 59
	.db #0x00	; 0
	.db #0x00	; 0
	.db #0x2b	; 43
	.db #0x2c	; 44
	.db #0x00	; 0
	.db #0x33	; 51	'3'
	.db #0x00	; 0
	.db #0x3c	; 60
	.db #0x3d	; 61
	.db #0x00	; 0
	.db #0x00	; 0
	.db #0x3e	; 62
	.db #0x3f	; 63
	.db #0x00	; 0
	.db #0x47	; 71	'G'
	.db #0x00	; 0
	.db #0x4e	; 78	'N'
	.db #0x4f	; 79	'O'
	.db #0x00	; 0
	.db #0x00	; 0
	.db #0x40	; 64
	.db #0x41	; 65	'A'
	.db #0x00	; 0
	.db #0x48	; 72	'H'
	.db #0x00	; 0
	.db #0x50	; 80	'P'
	.db #0x51	; 81	'Q'
	.db #0x00	; 0
	.db #0x00	; 0
	.db #0x40	; 64
	.db #0x42	; 66	'B'
	.db #0x00	; 0
	.db #0x49	; 73	'I'
	.db #0x00	; 0
	.db #0x52	; 82	'R'
	.db #0x53	; 83	'S'
	.db #0x00	; 0
	.db #0x00	; 0
	.db #0x43	; 67	'C'
	.db #0x44	; 68	'D'
	.db #0x00	; 0
	.db #0x4a	; 74	'J'
	.db #0x4b	; 75	'K'
	.db #0x54	; 84	'T'
	.db #0x55	; 85	'U'
	.db #0x00	; 0
	.db #0x00	; 0
	.db #0x45	; 69	'E'
	.db #0x46	; 70	'F'
	.db #0x00	; 0
	.db #0x4c	; 76	'L'
	.db #0x4d	; 77	'M'
	.db #0x56	; 86	'V'
	.db #0x57	; 87	'W'
	.db #0x00	; 0
	.db #0x00	; 0
	.db #0x58	; 88	'X'
	.db #0x59	; 89	'Y'
	.db #0x00	; 0
	.db #0x62	; 98	'b'
	.db #0x63	; 99	'c'
	.db #0x6c	; 108	'l'
	.db #0x6d	; 109	'm'
	.db #0x00	; 0
	.db #0x00	; 0
	.db #0x5a	; 90	'Z'
	.db #0x5b	; 91
	.db #0x00	; 0
	.db #0x64	; 100	'd'
	.db #0x65	; 101	'e'
	.db #0x6e	; 110	'n'
	.db #0x6f	; 111	'o'
	.db #0x00	; 0
	.db #0x00	; 0
	.db #0x5c	; 92
	.db #0x5d	; 93
	.db #0x00	; 0
	.db #0x66	; 102	'f'
	.db #0x67	; 103	'g'
	.db #0x70	; 112	'p'
	.db #0x71	; 113	'q'
	.db #0x72	; 114	'r'
	.db #0x00	; 0
	.db #0x5e	; 94
	.db #0x5f	; 95
	.db #0x00	; 0
	.db #0x68	; 104	'h'
	.db #0x69	; 105	'i'
	.db #0x73	; 115	's'
	.db #0x74	; 116	't'
	.db #0x72	; 114	'r'
	.db #0x00	; 0
	.db #0x60	; 96
	.db #0x61	; 97	'a'
	.db #0x00	; 0
	.db #0x6a	; 106	'j'
	.db #0x6b	; 107	'k'
	.db #0x75	; 117	'u'
	.db #0x76	; 118	'v'
	.db #0x2f	; 47
	.db #0x00	; 0
	.db #0x77	; 119	'w'
	.db #0x78	; 120	'x'
	.db #0x00	; 0
	.db #0x7f	; 127
	.db #0x00	; 0
	.db #0x84	; 132
	.db #0x85	; 133
	.db #0x2f	; 47
	.db #0x00	; 0
	.db #0x79	; 121	'y'
	.db #0x7a	; 122	'z'
	.db #0x00	; 0
	.db #0x80	; 128
	.db #0x00	; 0
	.db #0x86	; 134
	.db #0x87	; 135
	.db #0x2f	; 47
	.db #0x00	; 0
	.db #0x79	; 121	'y'
	.db #0x7b	; 123
	.db #0x00	; 0
	.db #0x81	; 129
	.db #0x2f	; 47
	.db #0x88	; 136
	.db #0x89	; 137
	.db #0x00	; 0
	.db #0x00	; 0
	.db #0x7c	; 124
	.db #0x7d	; 125
	.db #0x00	; 0
	.db #0x82	; 130
	.db #0x2f	; 47
	.db #0x8a	; 138
	.db #0x8b	; 139
	.db #0x00	; 0
	.db #0x00	; 0
	.db #0x79	; 121	'y'
	.db #0x7e	; 126
	.db #0x00	; 0
	.db #0x83	; 131
	.db #0x2f	; 47
	.db #0x8c	; 140
	.db #0x8d	; 141
	.db #0x00	; 0
	.db #0x00	; 0
	.db #0x01	; 1
	.db #0x02	; 2
	.db #0x00	; 0
	.db #0x09	; 9
	.db #0x00	; 0
	.db #0x0f	; 15
	.db #0x10	; 16
	.db #0x00	; 0
	.db #0x00	; 0
	.db #0x03	; 3
	.db #0x04	; 4
	.db #0x00	; 0
	.db #0x0a	; 10
	.db #0x00	; 0
	.db #0x11	; 17
	.db #0x12	; 18
	.db #0x00	; 0
	.db #0x00	; 0
	.db #0x03	; 3
	.db #0x05	; 5
	.db #0x00	; 0
	.db #0x0b	; 11
	.db #0x0c	; 12
	.db #0x13	; 19
	.db #0x14	; 20
	.db #0x00	; 0
	.db #0x00	; 0
	.db #0x06	; 6
	.db #0x07	; 7
	.db #0x00	; 0
	.db #0x0d	; 13
	.db #0x0c	; 12
	.db #0x15	; 21
	.db #0x16	; 22
	.db #0x00	; 0
	.db #0x00	; 0
	.db #0x06	; 6
	.db #0x08	; 8
	.db #0x00	; 0
	.db #0x0e	; 14
	.db #0x0c	; 12
	.db #0x17	; 23
	.db #0x18	; 24
	.db #0x00	; 0
	.db #0x00	; 0
	.db #0x19	; 25
	.db #0x1a	; 26
	.db #0x00	; 0
	.db #0x21	; 33
	.db #0x00	; 0
	.db #0x26	; 38
	.db #0x27	; 39
	.db #0x00	; 0
	.db #0x00	; 0
	.db #0x19	; 25
	.db #0x1b	; 27
	.db #0x00	; 0
	.db #0x22	; 34
	.db #0x00	; 0
	.db #0x28	; 40
	.db #0x29	; 41
	.db #0x00	; 0
	.db #0x00	; 0
	.db #0x19	; 25
	.db #0x1c	; 28
	.db #0x00	; 0
	.db #0x23	; 35
	.db #0x00	; 0
	.db #0x2a	; 42
	.db #0x2b	; 43
	.db #0x00	; 0
	.db #0x00	; 0
	.db #0x1d	; 29
	.db #0x1e	; 30
	.db #0x00	; 0
	.db #0x24	; 36
	.db #0x00	; 0
	.db #0x2c	; 44
	.db #0x2d	; 45
	.db #0x00	; 0
	.db #0x00	; 0
	.db #0x1f	; 31
	.db #0x20	; 32
	.db #0x00	; 0
	.db #0x25	; 37
	.db #0x00	; 0
	.db #0x2e	; 46
	.db #0x2f	; 47
	.db #0x00	; 0
	.db #0x00	; 0
	.db #0x30	; 48	'0'
	.db #0x20	; 32
	.db #0x00	; 0
	.db #0x35	; 53	'5'
	.db #0x00	; 0
	.db #0x3d	; 61
	.db #0x3e	; 62
	.db #0x00	; 0
	.db #0x00	; 0
	.db #0x30	; 48	'0'
	.db #0x31	; 49	'1'
	.db #0x00	; 0
	.db #0x36	; 54	'6'
	.db #0x00	; 0
	.db #0x3f	; 63
	.db #0x40	; 64
	.db #0x00	; 0
	.db #0x00	; 0
	.db #0x30	; 48	'0'
	.db #0x31	; 49	'1'
	.db #0x00	; 0
	.db #0x37	; 55	'7'
	.db #0x38	; 56	'8'
	.db #0x41	; 65	'A'
	.db #0x42	; 66	'B'
	.db #0x00	; 0
	.db #0x00	; 0
	.db #0x32	; 50	'2'
	.db #0x33	; 51	'3'
	.db #0x00	; 0
	.db #0x39	; 57	'9'
	.db #0x3a	; 58
	.db #0x43	; 67	'C'
	.db #0x44	; 68	'D'
	.db #0x00	; 0
	.db #0x00	; 0
	.db #0x32	; 50	'2'
	.db #0x34	; 52	'4'
	.db #0x00	; 0
	.db #0x3b	; 59
	.db #0x3c	; 60
	.db #0x45	; 69	'E'
	.db #0x46	; 70	'F'
	.db #0x00	; 0
	.db #0x00	; 0
	.db #0x47	; 71	'G'
	.db #0x48	; 72	'H'
	.db #0x00	; 0
	.db #0x4f	; 79	'O'
	.db #0x50	; 80	'P'
	.db #0x5b	; 91
	.db #0x5c	; 92
	.db #0x0c	; 12
	.db #0x00	; 0
	.db #0x1d	; 29
	.db #0x49	; 73	'I'
	.db #0x51	; 81	'Q'
	.db #0x52	; 82	'R'
	.db #0x53	; 83	'S'
	.db #0x5d	; 93
	.db #0x5e	; 94
	.db #0x5f	; 95
	.db #0x00	; 0
	.db #0x4a	; 74	'J'
	.db #0x4b	; 75	'K'
	.db #0x51	; 81	'Q'
	.db #0x54	; 84	'T'
	.db #0x55	; 85	'U'
	.db #0x60	; 96
	.db #0x61	; 97	'a'
	.db #0x62	; 98	'b'
	.db #0x00	; 0
	.db #0x4a	; 74	'J'
	.db #0x4c	; 76	'L'
	.db #0x56	; 86	'V'
	.db #0x57	; 87	'W'
	.db #0x58	; 88	'X'
	.db #0x63	; 99	'c'
	.db #0x64	; 100	'd'
	.db #0x65	; 101	'e'
	.db #0x00	; 0
	.db #0x4d	; 77	'M'
	.db #0x4e	; 78	'N'
	.db #0x56	; 86	'V'
	.db #0x59	; 89	'Y'
	.db #0x5a	; 90	'Z'
	.db #0x66	; 102	'f'
	.db #0x67	; 103	'g'
	.db #0x68	; 104	'h'
	.db #0x00	; 0
	.db #0x4d	; 77	'M'
	.db #0x69	; 105	'i'
	.db #0x72	; 114	'r'
	.db #0x73	; 115	's'
	.db #0x74	; 116	't'
	.db #0x7f	; 127
	.db #0x80	; 128
	.db #0x81	; 129
	.db #0x00	; 0
	.db #0x6a	; 106	'j'
	.db #0x6b	; 107	'k'
	.db #0x72	; 114	'r'
	.db #0x75	; 117	'u'
	.db #0x76	; 118	'v'
	.db #0x82	; 130
	.db #0x83	; 131
	.db #0x84	; 132
	.db #0x00	; 0
	.db #0x6c	; 108	'l'
	.db #0x6d	; 109	'm'
	.db #0x72	; 114	'r'
	.db #0x77	; 119	'w'
	.db #0x78	; 120	'x'
	.db #0x85	; 133
	.db #0x86	; 134
	.db #0x84	; 132
	.db #0x00	; 0
	.db #0x6e	; 110	'n'
	.db #0x6f	; 111	'o'
	.db #0x79	; 121	'y'
	.db #0x7a	; 122	'z'
	.db #0x7b	; 123
	.db #0x87	; 135
	.db #0x88	; 136
	.db #0x89	; 137
	.db #0x00	; 0
	.db #0x70	; 112	'p'
	.db #0x71	; 113	'q'
	.db #0x7c	; 124
	.db #0x7d	; 125
	.db #0x7e	; 126
	.db #0x8a	; 138
	.db #0x8b	; 139
	.db #0x8c	; 140
	.db #0x00	; 0
	.db #0x01	; 1
	.db #0x02	; 2
	.db #0x09	; 9
	.db #0x0a	; 10
	.db #0x0b	; 11
	.db #0x15	; 21
	.db #0x16	; 22
	.db #0x17	; 23
	.db #0x00	; 0
	.db #0x03	; 3
	.db #0x04	; 4
	.db #0x09	; 9
	.db #0x0c	; 12
	.db #0x0d	; 13
	.db #0x18	; 24
	.db #0x19	; 25
	.db #0x1a	; 26
	.db #0x00	; 0
	.db #0x03	; 3
	.db #0x05	; 5
	.db #0x0e	; 14
	.db #0x0f	; 15
	.db #0x10	; 16
	.db #0x1b	; 27
	.db #0x1c	; 28
	.db #0x1d	; 29
	.db #0x00	; 0
	.db #0x06	; 6
	.db #0x07	; 7
	.db #0x0e	; 14
	.db #0x11	; 17
	.db #0x12	; 18
	.db #0x1e	; 30
	.db #0x1f	; 31
	.db #0x00	; 0
	.db #0x00	; 0
	.db #0x06	; 6
	.db #0x08	; 8
	.db #0x0e	; 14
	.db #0x13	; 19
	.db #0x14	; 20
	.db #0x20	; 32
	.db #0x21	; 33
	.db #0x00	; 0
	.db #0x00	; 0
	.db #0x22	; 34
	.db #0x23	; 35
	.db #0x2c	; 44
	.db #0x2d	; 45
	.db #0x14	; 20
	.db #0x37	; 55	'7'
	.db #0x38	; 56	'8'
	.db #0x00	; 0
	.db #0x00	; 0
	.db #0x24	; 36
	.db #0x25	; 37
	.db #0x2e	; 46
	.db #0x2f	; 47
	.db #0x30	; 48	'0'
	.db #0x39	; 57	'9'
	.db #0x3a	; 58
	.db #0x00	; 0
	.db #0x00	; 0
	.db #0x26	; 38
	.db #0x27	; 39
	.db #0x00	; 0
	.db #0x31	; 49	'1'
	.db #0x32	; 50	'2'
	.db #0x3b	; 59
	.db #0x3c	; 60
	.db #0x00	; 0
	.db #0x00	; 0
	.db #0x28	; 40
	.db #0x29	; 41
	.db #0x00	; 0
	.db #0x33	; 51	'3'
	.db #0x34	; 52	'4'
	.db #0x3d	; 61
	.db #0x3e	; 62
	.db #0x00	; 0
	.db #0x00	; 0
	.db #0x2a	; 42
	.db #0x2b	; 43
	.db #0x00	; 0
	.db #0x35	; 53	'5'
	.db #0x36	; 54	'6'
	.db #0x3f	; 63
	.db #0x40	; 64
	.db #0x00	; 0
	.db #0x00	; 0
	.db #0x41	; 65	'A'
	.db #0x42	; 66	'B'
	.db #0x00	; 0
	.db #0x4a	; 74	'J'
	.db #0x4b	; 75	'K'
	.db #0x54	; 84	'T'
	.db #0x55	; 85	'U'
	.db #0x00	; 0
	.db #0x00	; 0
	.db #0x43	; 67	'C'
	.db #0x44	; 68	'D'
	.db #0x00	; 0
	.db #0x4c	; 76	'L'
	.db #0x4d	; 77	'M'
	.db #0x56	; 86	'V'
	.db #0x57	; 87	'W'
	.db #0x00	; 0
	.db #0x00	; 0
	.db #0x43	; 67	'C'
	.db #0x45	; 69	'E'
	.db #0x00	; 0
	.db #0x4e	; 78	'N'
	.db #0x4f	; 79	'O'
	.db #0x58	; 88	'X'
	.db #0x59	; 89	'Y'
	.db #0x00	; 0
	.db #0x00	; 0
	.db #0x46	; 70	'F'
	.db #0x47	; 71	'G'
	.db #0x00	; 0
	.db #0x50	; 80	'P'
	.db #0x51	; 81	'Q'
	.db #0x5a	; 90	'Z'
	.db #0x5b	; 91
	.db #0x00	; 0
	.db #0x00	; 0
	.db #0x48	; 72	'H'
	.db #0x49	; 73	'I'
	.db #0x00	; 0
	.db #0x52	; 82	'R'
	.db #0x53	; 83	'S'
	.db #0x5c	; 92
	.db #0x5d	; 93
	.db #0x00	; 0
	.db #0x00	; 0
	.db #0x5e	; 94
	.db #0x5f	; 95
	.db #0x00	; 0
	.db #0x67	; 103	'g'
	.db #0x68	; 104	'h'
	.db #0x71	; 113	'q'
	.db #0x72	; 114	'r'
	.db #0x00	; 0
	.db #0x00	; 0
	.db #0x60	; 96
	.db #0x61	; 97	'a'
	.db #0x00	; 0
	.db #0x69	; 105	'i'
	.db #0x6a	; 106	'j'
	.db #0x73	; 115	's'
	.db #0x74	; 116	't'
	.db #0x1d	; 29
	.db #0x00	; 0
	.db #0x62	; 98	'b'
	.db #0x61	; 97	'a'
	.db #0x00	; 0
	.db #0x6b	; 107	'k'
	.db #0x6c	; 108	'l'
	.db #0x75	; 117	'u'
	.db #0x76	; 118	'v'
	.db #0x77	; 119	'w'
	.db #0x00	; 0
	.db #0x63	; 99	'c'
	.db #0x64	; 100	'd'
	.db #0x00	; 0
	.db #0x6d	; 109	'm'
	.db #0x6e	; 110	'n'
	.db #0x78	; 120	'x'
	.db #0x79	; 121	'y'
	.db #0x7a	; 122	'z'
	.db #0x00	; 0
	.db #0x65	; 101	'e'
	.db #0x66	; 102	'f'
	.db #0x00	; 0
	.db #0x6f	; 111	'o'
	.db #0x70	; 112	'p'
	.db #0x7b	; 123
	.db #0x7c	; 124
	.db #0x7d	; 125
	.db #0x00	; 0
	.db #0x7e	; 126
	.db #0x7f	; 127
	.db #0x00	; 0
	.db #0x86	; 134
	.db #0x87	; 135
	.db #0x90	; 144
	.db #0x91	; 145
	.db #0x92	; 146
	.db #0x00	; 0
	.db #0x80	; 128
	.db #0x81	; 129
	.db #0x00	; 0
	.db #0x88	; 136
	.db #0x89	; 137
	.db #0x93	; 147
	.db #0x94	; 148
	.db #0x95	; 149
	.db #0x00	; 0
	.db #0x82	; 130
	.db #0x83	; 131
	.db #0x00	; 0
	.db #0x8a	; 138
	.db #0x8b	; 139
	.db #0x96	; 150
	.db #0x97	; 151
	.db #0x98	; 152
	.db #0x00	; 0
	.db #0x82	; 130
	.db #0x84	; 132
	.db #0x00	; 0
	.db #0x8c	; 140
	.db #0x8d	; 141
	.db #0x99	; 153
	.db #0x9a	; 154
	.db #0x9b	; 155
	.db #0x00	; 0
	.db #0x82	; 130
	.db #0x85	; 133
	.db #0x00	; 0
	.db #0x8e	; 142
	.db #0x8f	; 143
	.db #0x9c	; 156
	.db #0x9d	; 157
	.db #0x9e	; 158
_TILESETWALKER_1_25:
	.db #0x00	; 0
	.db #0x00	; 0
	.db #0x00	; 0
	.db #0x00	; 0
	.db #0x00	; 0
	.db #0x00	; 0
	.db #0x00	; 0
	.db #0x00	; 0
	.db #0x00	; 0
	.db #0x00	; 0
	.db #0x00	; 0
	.db #0x00	; 0
	.db #0x00	; 0
	.db #0x00	; 0
	.db #0x00	; 0
	.db #0x00	; 0
	.db #0x00	; 0
	.db #0x00	; 0
	.db #0x00	; 0
	.db #0x00	; 0
	.db #0x00	; 0
	.db #0x00	; 0
	.db #0x00	; 0
	.db #0x00	; 0
	.db #0x01	; 1
	.db #0x00	; 0
	.db #0x03	; 3
	.db #0x01	; 1
	.db #0x07	; 7
	.db #0x07	; 7
	.db #0x07	; 7
	.db #0x07	; 7
	.db #0x00	; 0
	.db #0x00	; 0
	.db #0x0c	; 12
	.db #0x00	; 0
	.db #0x1c	; 28
	.db #0x1c	; 28
	.db #0x3e	; 62
	.db #0x1c	; 28
	.db #0xfc	; 252
	.db #0xf8	; 248
	.db #0xf8	; 248
	.db #0xf8	; 248
	.db #0xf0	; 240
	.db #0xe0	; 224
	.db #0xf0	; 240
	.db #0xe0	; 224
	.db #0x00	; 0
	.db #0x00	; 0
	.db #0x00	; 0
	.db #0x00	; 0
	.db #0x00	; 0
	.db #0x00	; 0
	.db #0x00	; 0
	.db #0x00	; 0
	.db #0x01	; 1
	.db #0x01	; 1
	.db #0x03	; 3
	.db #0x03	; 3
	.db #0x07	; 7
	.db #0x07	; 7
	.db #0x0f	; 15
	.db #0x07	; 7
	.db #0x00	; 0
	.db #0x00	; 0
	.db #0x0c	; 12
	.db #0x00	; 0
	.db #0x1c	; 28
	.db #0x1c	; 28
	.db #0x7e	; 126
	.db #0x1c	; 28
	.db #0xfc	; 252
	.db #0xf8	; 248
	.db #0xf8	; 248
	.db #0xf0	; 240
	.db #0xe0	; 224
	.db #0xe0	; 224
	.db #0xe0	; 224
	.db #0xe0	; 224
	.db #0x00	; 0
	.db #0x00	; 0
	.db #0x00	; 0
	.db #0x00	; 0
	.db #0x00	; 0
	.db #0x00	; 0
	.db #0x00	; 0
	.db #0x00	; 0
	.db #0x01	; 1
	.db #0x01	; 1
	.db #0x07	; 7
	.db #0x03	; 3
	.db #0x0f	; 15
	.db #0x07	; 7
	.db #0x0f	; 15
	.db #0x07	; 7
	.db #0x00	; 0
	.db #0x00	; 0
	.db #0x0c	; 12
	.db #0x00	; 0
	.db #0x1c	; 28
	.db #0x1c	; 28
	.db #0xfe	; 254
	.db #0x3c	; 60
	.db #0xfc	; 252
	.db #0xf8	; 248
	.db #0xf8	; 248
	.db #0xf0	; 240
	.db #0xe0	; 224
	.db #0xe0	; 224
	.db #0xe0	; 224
	.db #0xe0	; 224
	.db #0x00	; 0
	.db #0x00	; 0
	.db #0x00	; 0
	.db #0x00	; 0
	.db #0x00	; 0
	.db #0x00	; 0
	.db #0x00	; 0
	.db #0x00	; 0
	.db #0x03	; 3
	.db #0x01	; 1
	.db #0x07	; 7
	.db #0x07	; 7
	.db #0x0f	; 15
	.db #0x07	; 7
	.db #0x0f	; 15
	.db #0x07	; 7
	.db #0x00	; 0
	.db #0x00	; 0
	.db #0x1c	; 28
	.db #0x08	; 8
	.db #0x1e	; 30
	.db #0x1c	; 28
	.db #0xfe	; 254
	.db #0xbc	; 188
	.db #0xfc	; 252
	.db #0xf8	; 248
	.db #0xf8	; 248
	.db #0xe0	; 224
	.db #0xe0	; 224
	.db #0xe0	; 224
	.db #0xe0	; 224
	.db #0xe0	; 224
	.db #0x00	; 0
	.db #0x00	; 0
	.db #0x00	; 0
	.db #0x00	; 0
	.db #0x00	; 0
	.db #0x00	; 0
	.db #0x01	; 1
	.db #0x00	; 0
	.db #0x03	; 3
	.db #0x03	; 3
	.db #0x0f	; 15
	.db #0x07	; 7
	.db #0x0f	; 15
	.db #0x0f	; 15
	.db #0x0f	; 15
	.db #0x07	; 7
	.db #0x00	; 0
	.db #0x00	; 0
	.db #0x1c	; 28
	.db #0x08	; 8
	.db #0x3c	; 60
	.db #0x1c	; 28
	.db #0xfc	; 252
	.db #0xfc	; 252
	.db #0xfc	; 252
	.db #0xf8	; 248
	.db #0xf8	; 248
	.db #0xe0	; 224
	.db #0xe0	; 224
	.db #0xc0	; 192
	.db #0xe0	; 224
	.db #0xc0	; 192
	.db #0x0f	; 15
	.db #0x07	; 7
	.db #0x0f	; 15
	.db #0x0f	; 15
	.db #0x1f	; 31
	.db #0x1e	; 30
	.db #0x3e	; 62
	.db #0x1c	; 28
	.db #0x3e	; 62
	.db #0x3e	; 62
	.db #0x7f	; 127
	.db #0x3e	; 62
	.db #0xff	; 255
	.db #0x7f	; 127
	.db #0xf7	; 247
	.db #0xe3	; 227
	.db #0xe0	; 224
	.db #0xc0	; 192
	.db #0x80	; 128
	.db #0x00	; 0
	.db #0x00	; 0
	.db #0x00	; 0
	.db #0x00	; 0
	.db #0x00	; 0
	.db #0x00	; 0
	.db #0x00	; 0
	.db #0x00	; 0
	.db #0x00	; 0
	.db #0x00	; 0
	.db #0x00	; 0
	.db #0x80	; 128
	.db #0x80	; 128
	.db #0x00	; 0
	.db #0x00	; 0
	.db #0x00	; 0
	.db #0x00	; 0
	.db #0x00	; 0
	.db #0x00	; 0
	.db #0x00	; 0
	.db #0x00	; 0
	.db #0x00	; 0
	.db #0x00	; 0
	.db #0x00	; 0
	.db #0x00	; 0
	.db #0x00	; 0
	.db #0x00	; 0
	.db #0x01	; 1
	.db #0x00	; 0
	.db #0x0f	; 15
	.db #0x07	; 7
	.db #0x1f	; 31
	.db #0x0f	; 15
	.db #0x3f	; 63
	.db #0x1e	; 30
	.db #0x3e	; 62
	.db #0x1c	; 28
	.db #0x3e	; 62
	.db #0x3e	; 62
	.db #0x7f	; 127
	.db #0x7e	; 126
	.db #0xff	; 255
	.db #0x7f	; 127
	.db #0xe7	; 231
	.db #0xe7	; 231
	.db #0xe0	; 224
	.db #0xc0	; 192
	.db #0x80	; 128
	.db #0x00	; 0
	.db #0x00	; 0
	.db #0x00	; 0
	.db #0x00	; 0
	.db #0x00	; 0
	.db #0x00	; 0
	.db #0x00	; 0
	.db #0x00	; 0
	.db #0x00	; 0
	.db #0x00	; 0
	.db #0x00	; 0
	.db #0x80	; 128
	.db #0x00	; 0
	.db #0x0f	; 15
	.db #0x07	; 7
	.db #0x1f	; 31
	.db #0x0e	; 14
	.db #0x3e	; 62
	.db #0x1e	; 30
	.db #0x3e	; 62
	.db #0x3c	; 60
	.db #0x7e	; 126
	.db #0x3c	; 60
	.db #0x7e	; 126
	.db #0x7e	; 126
	.db #0xff	; 255
	.db #0xfe	; 254
	.db #0xef	; 239
	.db #0xc7	; 199
	.db #0xe0	; 224
	.db #0xc0	; 192
	.db #0x00	; 0
	.db #0x00	; 0
	.db #0x00	; 0
	.db #0x00	; 0
	.db #0x00	; 0
	.db #0x00	; 0
	.db #0x00	; 0
	.db #0x00	; 0
	.db #0x00	; 0
	.db #0x00	; 0
	.db #0x00	; 0
	.db #0x00	; 0
	.db #0x00	; 0
	.db #0x00	; 0
	.db #0x0f	; 15
	.db #0x0f	; 15
	.db #0x1f	; 31
	.db #0x1e	; 30
	.db #0x3e	; 62
	.db #0x1e	; 30
	.db #0x3e	; 62
	.db #0x3c	; 60
	.db #0x7e	; 126
	.db #0x3c	; 60
	.db #0x7e	; 126
	.db #0x7e	; 126
	.db #0xfe	; 254
	.db #0x7e	; 126
	.db #0xff	; 255
	.db #0xc7	; 199
	.db #0x0f	; 15
	.db #0x0f	; 15
	.db #0x1f	; 31
	.db #0x1e	; 30
	.db #0x3e	; 62
	.db #0x3c	; 60
	.db #0x3e	; 62
	.db #0x3c	; 60
	.db #0x7c	; 124
	.db #0x3c	; 60
	.db #0xfe	; 254
	.db #0x7e	; 126
	.db #0xfe	; 254
	.db #0xfe	; 254
	.db #0xef	; 239
	.db #0xc6	; 198
	.db #0x01	; 1
	.db #0x01	; 1
	.db #0x03	; 3
	.db #0x03	; 3
	.db #0x07	; 7
	.db #0x06	; 6
	.db #0x0e	; 14
	.db #0x04	; 4
	.db #0x1c	; 28
	.db #0x08	; 8
	.db #0x18	; 24
	.db #0x10	; 16
	.db #0x38	; 56	'8'
	.db #0x10	; 16
	.db #0x38	; 56	'8'
	.db #0x38	; 56	'8'
	.db #0xe3	; 227
	.db #0xc3	; 195
	.db #0x83	; 131
	.db #0x81	; 129
	.db #0x07	; 7
	.db #0x03	; 3
	.db #0x07	; 7
	.db #0x06	; 6
	.db #0x0e	; 14
	.db #0x04	; 4
	.db #0x0c	; 12
	.db #0x08	; 8
	.db #0x18	; 24
	.db #0x08	; 8
	.db #0x1c	; 28
	.db #0x1c	; 28
	.db #0x80	; 128
	.db #0x80	; 128
	.db #0x80	; 128
	.db #0x80	; 128
	.db #0x80	; 128
	.db #0x00	; 0
	.db #0x00	; 0
	.db #0x00	; 0
	.db #0x00	; 0
	.db #0x00	; 0
	.db #0x00	; 0
	.db #0x00	; 0
	.db #0x00	; 0
	.db #0x00	; 0
	.db #0x00	; 0
	.db #0x00	; 0
	.db #0x01	; 1
	.db #0x01	; 1
	.db #0x07	; 7
	.db #0x03	; 3
	.db #0x0f	; 15
	.db #0x06	; 6
	.db #0x0e	; 14
	.db #0x0c	; 12
	.db #0x1c	; 28
	.db #0x08	; 8
	.db #0x18	; 24
	.db #0x10	; 16
	.db #0x30	; 48	'0'
	.db #0x30	; 48	'0'
	.db #0x78	; 120	'x'
	.db #0x38	; 56	'8'
	.db #0xc3	; 195
	.db #0xc3	; 195
	.db #0x83	; 131
	.db #0x83	; 131
	.db #0x07	; 7
	.db #0x06	; 6
	.db #0x0e	; 14
	.db #0x04	; 4
	.db #0x0c	; 12
	.db #0x08	; 8
	.db #0x18	; 24
	.db #0x08	; 8
	.db #0x18	; 24
	.db #0x10	; 16
	.db #0x3c	; 60
	.db #0x18	; 24
	.db #0x80	; 128
	.db #0x80	; 128
	.db #0x80	; 128
	.db #0x00	; 0
	.db #0x00	; 0
	.db #0x00	; 0
	.db #0x00	; 0
	.db #0x00	; 0
	.db #0x00	; 0
	.db #0x00	; 0
	.db #0x00	; 0
	.db #0x00	; 0
	.db #0x00	; 0
	.db #0x00	; 0
	.db #0x00	; 0
	.db #0x00	; 0
	.db #0x03	; 3
	.db #0x01	; 1
	.db #0x07	; 7
	.db #0x03	; 3
	.db #0x0f	; 15
	.db #0x06	; 6
	.db #0x0e	; 14
	.db #0x0c	; 12
	.db #0x1c	; 28
	.db #0x08	; 8
	.db #0x38	; 56	'8'
	.db #0x10	; 16
	.db #0x30	; 48	'0'
	.db #0x30	; 48	'0'
	.db #0x78	; 120	'x'
	.db #0x30	; 48	'0'
	.db #0xc7	; 199
	.db #0x83	; 131
	.db #0x87	; 135
	.db #0x03	; 3
	.db #0x0f	; 15
	.db #0x06	; 6
	.db #0x0e	; 14
	.db #0x0c	; 12
	.db #0x1c	; 28
	.db #0x08	; 8
	.db #0x18	; 24
	.db #0x10	; 16
	.db #0x38	; 56	'8'
	.db #0x10	; 16
	.db #0x38	; 56	'8'
	.db #0x38	; 56	'8'
	.db #0x03	; 3
	.db #0x01	; 1
	.db #0x07	; 7
	.db #0x03	; 3
	.db #0x0f	; 15
	.db #0x06	; 6
	.db #0x0e	; 14
	.db #0x0c	; 12
	.db #0x1c	; 28
	.db #0x08	; 8
	.db #0x38	; 56	'8'
	.db #0x10	; 16
	.db #0x70	; 112	'p'
	.db #0x30	; 48	'0'
	.db #0x78	; 120	'x'
	.db #0x30	; 48	'0'
	.db #0xc7	; 199
	.db #0x87	; 135
	.db #0x87	; 135
	.db #0x06	; 6
	.db #0x0f	; 15
	.db #0x0e	; 14
	.db #0x1c	; 28
	.db #0x0c	; 12
	.db #0x18	; 24
	.db #0x18	; 24
	.db #0x38	; 56	'8'
	.db #0x10	; 16
	.db #0x30	; 48	'0'
	.db #0x30	; 48	'0'
	.db #0x78	; 120	'x'
	.db #0x30	; 48	'0'
	.db #0x03	; 3
	.db #0x01	; 1
	.db #0x07	; 7
	.db #0x07	; 7
	.db #0x0e	; 14
	.db #0x06	; 6
	.db #0x1c	; 28
	.db #0x08	; 8
	.db #0x18	; 24
	.db #0x10	; 16
	.db #0x30	; 48	'0'
	.db #0x30	; 48	'0'
	.db #0x70	; 112	'p'
	.db #0x30	; 48	'0'
	.db #0x70	; 112	'p'
	.db #0x30	; 48	'0'
	.db #0xc7	; 199
	.db #0x86	; 134
	.db #0x8f	; 143
	.db #0x06	; 6
	.db #0x1e	; 30
	.db #0x0c	; 12
	.db #0x1c	; 28
	.db #0x18	; 24
	.db #0x38	; 56	'8'
	.db #0x10	; 16
	.db #0x30	; 48	'0'
	.db #0x20	; 32
	.db #0x70	; 112	'p'
	.db #0x20	; 32
	.db #0x78	; 120	'x'
	.db #0x30	; 48	'0'
	.db #0x00	; 0
	.db #0x00	; 0
	.db #0x00	; 0
	.db #0x00	; 0
	.db #0x00	; 0
	.db #0x00	; 0
	.db #0x01	; 1
	.db #0x00	; 0
	.db #0x03	; 3
	.db #0x03	; 3
	.db #0x0f	; 15
	.db #0x07	; 7
	.db #0x0f	; 15
	.db #0x07	; 7
	.db #0x0f	; 15
	.db #0x07	; 7
	.db #0x00	; 0
	.db #0x00	; 0
	.db #0x1c	; 28
	.db #0x0c	; 12
	.db #0x3c	; 60
	.db #0x1c	; 28
	.db #0xfc	; 252
	.db #0xfc	; 252
	.db #0xfc	; 252
	.db #0xf8	; 248
	.db #0xf0	; 240
	.db #0xe0	; 224
	.db #0xe0	; 224
	.db #0xc0	; 192
	.db #0xe0	; 224
	.db #0xc0	; 192
	.db #0x00	; 0
	.db #0x00	; 0
	.db #0x1c	; 28
	.db #0x1c	; 28
	.db #0x3c	; 60
	.db #0x1c	; 28
	.db #0xfc	; 252
	.db #0xf8	; 248
	.db #0xf8	; 248
	.db #0xf8	; 248
	.db #0xf0	; 240
	.db #0xe0	; 224
	.db #0xe0	; 224
	.db #0xe0	; 224
	.db #0xe0	; 224
	.db #0xc0	; 192
	.db #0x08	; 8
	.db #0x00	; 0
	.db #0x1c	; 28
	.db #0x1c	; 28
	.db #0x3c	; 60
	.db #0x1c	; 28
	.db #0xfc	; 252
	.db #0xf8	; 248
	.db #0xf8	; 248
	.db #0xf0	; 240
	.db #0xe0	; 224
	.db #0xc0	; 192
	.db #0xe0	; 224
	.db #0xe0	; 224
	.db #0xe0	; 224
	.db #0xc0	; 192
	.db #0x1c	; 28
	.db #0x00	; 0
	.db #0x1c	; 28
	.db #0x1c	; 28
	.db #0x3c	; 60
	.db #0x1c	; 28
	.db #0xfc	; 252
	.db #0xf8	; 248
	.db #0xf8	; 248
	.db #0xf0	; 240
	.db #0xe0	; 224
	.db #0xe0	; 224
	.db #0xe0	; 224
	.db #0xe0	; 224
	.db #0xe0	; 224
	.db #0xc0	; 192
	.db #0x1c	; 28
	.db #0x08	; 8
	.db #0x3c	; 60
	.db #0x1c	; 28
	.db #0x7c	; 124
	.db #0x3c	; 60
	.db #0xfc	; 252
	.db #0xf8	; 248
	.db #0xf8	; 248
	.db #0xf0	; 240
	.db #0xe0	; 224
	.db #0xe0	; 224
	.db #0xe0	; 224
	.db #0xe0	; 224
	.db #0xe0	; 224
	.db #0xc0	; 192
	.db #0x0f	; 15
	.db #0x0f	; 15
	.db #0x1f	; 31
	.db #0x1e	; 30
	.db #0x3e	; 62
	.db #0x3c	; 60
	.db #0x3e	; 62
	.db #0x3c	; 60
	.db #0x7c	; 124
	.db #0x3c	; 60
	.db #0x7e	; 126
	.db #0x7c	; 124
	.db #0xfe	; 254
	.db #0xfe	; 254
	.db #0xfe	; 254
	.db #0xce	; 206
	.db #0xe0	; 224
	.db #0x80	; 128
	.db #0x00	; 0
	.db #0x00	; 0
	.db #0x00	; 0
	.db #0x00	; 0
	.db #0x00	; 0
	.db #0x00	; 0
	.db #0x00	; 0
	.db #0x00	; 0
	.db #0x00	; 0
	.db #0x00	; 0
	.db #0x00	; 0
	.db #0x00	; 0
	.db #0x00	; 0
	.db #0x00	; 0
	.db #0x0f	; 15
	.db #0x0f	; 15
	.db #0x1f	; 31
	.db #0x1e	; 30
	.db #0x3e	; 62
	.db #0x3c	; 60
	.db #0x3e	; 62
	.db #0x3c	; 60
	.db #0x7c	; 124
	.db #0x3c	; 60
	.db #0x7e	; 126
	.db #0x3c	; 60
	.db #0xfe	; 254
	.db #0x7e	; 126
	.db #0xfe	; 254
	.db #0xfe	; 254
	.db #0x0f	; 15
	.db #0x0f	; 15
	.db #0x3f	; 63
	.db #0x1e	; 30
	.db #0x3e	; 62
	.db #0x3c	; 60
	.db #0x3e	; 62
	.db #0x3c	; 60
	.db #0x3c	; 60
	.db #0x3c	; 60
	.db #0x7e	; 126
	.db #0x3c	; 60
	.db #0x7e	; 126
	.db #0x7c	; 124
	.db #0xfe	; 254
	.db #0x7c	; 124
	.db #0xc0	; 192
	.db #0x00	; 0
	.db #0x00	; 0
	.db #0x00	; 0
	.db #0x00	; 0
	.db #0x00	; 0
	.db #0x00	; 0
	.db #0x00	; 0
	.db #0x00	; 0
	.db #0x00	; 0
	.db #0x00	; 0
	.db #0x00	; 0
	.db #0x00	; 0
	.db #0x00	; 0
	.db #0x00	; 0
	.db #0x00	; 0
	.db #0x0f	; 15
	.db #0x0f	; 15
	.db #0x3f	; 63
	.db #0x1e	; 30
	.db #0x3e	; 62
	.db #0x3c	; 60
	.db #0x3c	; 60
	.db #0x3c	; 60
	.db #0x3c	; 60
	.db #0x3c	; 60
	.db #0x3c	; 60
	.db #0x3c	; 60
	.db #0x7c	; 124
	.db #0x3c	; 60
	.db #0x7e	; 126
	.db #0x7c	; 124
	.db #0x80	; 128
	.db #0x00	; 0
	.db #0x00	; 0
	.db #0x00	; 0
	.db #0x00	; 0
	.db #0x00	; 0
	.db #0x00	; 0
	.db #0x00	; 0
	.db #0x00	; 0
	.db #0x00	; 0
	.db #0x00	; 0
	.db #0x00	; 0
	.db #0x00	; 0
	.db #0x00	; 0
	.db #0x00	; 0
	.db #0x00	; 0
	.db #0x1f	; 31
	.db #0x0f	; 15
	.db #0x3f	; 63
	.db #0x1e	; 30
	.db #0x3e	; 62
	.db #0x3c	; 60
	.db #0x3c	; 60
	.db #0x3c	; 60
	.db #0x3c	; 60
	.db #0x1c	; 28
	.db #0x3c	; 60
	.db #0x3c	; 60
	.db #0x3c	; 60
	.db #0x3c	; 60
	.db #0x3c	; 60
	.db #0x3c	; 60
	.db #0x03	; 3
	.db #0x01	; 1
	.db #0x07	; 7
	.db #0x07	; 7
	.db #0x0f	; 15
	.db #0x06	; 6
	.db #0x1c	; 28
	.db #0x08	; 8
	.db #0x18	; 24
	.db #0x10	; 16
	.db #0x70	; 112	'p'
	.db #0x30	; 48	'0'
	.db #0x70	; 112	'p'
	.db #0x30	; 48	'0'
	.db #0x70	; 112	'p'
	.db #0x30	; 48	'0'
	.db #0xce	; 206
	.db #0x86	; 134
	.db #0x8f	; 143
	.db #0x06	; 6
	.db #0x1e	; 30
	.db #0x0c	; 12
	.db #0x1c	; 28
	.db #0x18	; 24
	.db #0x38	; 56	'8'
	.db #0x10	; 16
	.db #0x30	; 48	'0'
	.db #0x20	; 32
	.db #0x60	; 96
	.db #0x20	; 32
	.db #0xf0	; 240
	.db #0x60	; 96
	.db #0x01	; 1
	.db #0x00	; 0
	.db #0x03	; 3
	.db #0x03	; 3
	.db #0x07	; 7
	.db #0x06	; 6
	.db #0x0e	; 14
	.db #0x0c	; 12
	.db #0x1c	; 28
	.db #0x08	; 8
	.db #0x78	; 120	'x'
	.db #0x30	; 48	'0'
	.db #0x30	; 48	'0'
	.db #0x30	; 48	'0'
	.db #0x30	; 48	'0'
	.db #0x30	; 48	'0'
	.db #0xee	; 238
	.db #0xc6	; 198
	.db #0xce	; 206
	.db #0x86	; 134
	.db #0x9e	; 158
	.db #0x1c	; 28
	.db #0x38	; 56	'8'
	.db #0x18	; 24
	.db #0x30	; 48	'0'
	.db #0x30	; 48	'0'
	.db #0x70	; 112	'p'
	.db #0x20	; 32
	.db #0x60	; 96
	.db #0x60	; 96
	.db #0xf0	; 240
	.db #0x60	; 96
	.db #0x00	; 0
	.db #0x00	; 0
	.db #0x03	; 3
	.db #0x01	; 1
	.db #0x07	; 7
	.db #0x03	; 3
	.db #0x0f	; 15
	.db #0x06	; 6
	.db #0x1c	; 28
	.db #0x08	; 8
	.db #0x38	; 56	'8'
	.db #0x30	; 48	'0'
	.db #0x30	; 48	'0'
	.db #0x30	; 48	'0'
	.db #0x30	; 48	'0'
	.db #0x10	; 16
	.db #0xfe	; 254
	.db #0x7c	; 124
	.db #0xfe	; 254
	.db #0xfc	; 252
	.db #0xfc	; 252
	.db #0x78	; 120	'x'
	.db #0x38	; 56	'8'
	.db #0x30	; 48	'0'
	.db #0x70	; 112	'p'
	.db #0x20	; 32
	.db #0x60	; 96
	.db #0x40	; 64
	.db #0xe0	; 224
	.db #0x40	; 64
	.db #0xf0	; 240
	.db #0xe0	; 224
	.db #0x00	; 0
	.db #0x00	; 0
	.db #0x01	; 1
	.db #0x01	; 1
	.db #0x07	; 7
	.db #0x03	; 3
	.db #0x0f	; 15
	.db #0x06	; 6
	.db #0x3e	; 62
	.db #0x08	; 8
	.db #0x38	; 56	'8'
	.db #0x10	; 16
	.db #0x30	; 48	'0'
	.db #0x10	; 16
	.db #0x31	; 49	'1'
	.db #0x10	; 16
	.db #0x7c	; 124
	.db #0x7c	; 124
	.db #0xfc	; 252
	.db #0xfc	; 252
	.db #0xfc	; 252
	.db #0xf8	; 248
	.db #0xf8	; 248
	.db #0x70	; 112	'p'
	.db #0x70	; 112	'p'
	.db #0x60	; 96
	.db #0xe0	; 224
	.db #0x40	; 64
	.db #0xc0	; 192
	.db #0xc0	; 192
	.db #0xe0	; 224
	.db #0xc0	; 192
	.db #0x00	; 0
	.db #0x00	; 0
	.db #0x01	; 1
	.db #0x00	; 0
	.db #0x03	; 3
	.db #0x01	; 1
	.db #0x07	; 7
	.db #0x07	; 7
	.db #0x1e	; 30
	.db #0x1c	; 28
	.db #0x18	; 24
	.db #0x18	; 24
	.db #0x18	; 24
	.db #0x10	; 16
	.db #0x19	; 25
	.db #0x10	; 16
	.db #0x7c	; 124
	.db #0x3c	; 60
	.db #0xfc	; 252
	.db #0xf8	; 248
	.db #0xf8	; 248
	.db #0xf0	; 240
	.db #0xf0	; 240
	.db #0xe0	; 224
	.db #0xe0	; 224
	.db #0x40	; 64
	.db #0xc0	; 192
	.db #0x40	; 64
	.db #0xc0	; 192
	.db #0x80	; 128
	.db #0xe0	; 224
	.db #0xc0	; 192
	.db #0x00	; 0
	.db #0x00	; 0
	.db #0x00	; 0
	.db #0x00	; 0
	.db #0x00	; 0
	.db #0x00	; 0
	.db #0x01	; 1
	.db #0x00	; 0
	.db #0x03	; 3
	.db #0x01	; 1
	.db #0x07	; 7
	.db #0x07	; 7
	.db #0x0f	; 15
	.db #0x07	; 7
	.db #0x0f	; 15
	.db #0x07	; 7
	.db #0x1c	; 28
	.db #0x0c	; 12
	.db #0x3c	; 60
	.db #0x1c	; 28
	.db #0xfc	; 252
	.db #0x3c	; 60
	.db #0xfc	; 252
	.db #0xf8	; 248
	.db #0xf8	; 248
	.db #0xe0	; 224
	.db #0xe0	; 224
	.db #0xe0	; 224
	.db #0xe0	; 224
	.db #0xe0	; 224
	.db #0xe0	; 224
	.db #0xc0	; 192
	.db #0x00	; 0
	.db #0x00	; 0
	.db #0x00	; 0
	.db #0x00	; 0
	.db #0x00	; 0
	.db #0x00	; 0
	.db #0x01	; 1
	.db #0x01	; 1
	.db #0x03	; 3
	.db #0x03	; 3
	.db #0x07	; 7
	.db #0x07	; 7
	.db #0x0f	; 15
	.db #0x07	; 7
	.db #0x0f	; 15
	.db #0x07	; 7
	.db #0x1c	; 28
	.db #0x18	; 24
	.db #0x3c	; 60
	.db #0x1c	; 28
	.db #0xfc	; 252
	.db #0x38	; 56	'8'
	.db #0xfc	; 252
	.db #0xf8	; 248
	.db #0xf8	; 248
	.db #0xc0	; 192
	.db #0xe0	; 224
	.db #0xe0	; 224
	.db #0xe0	; 224
	.db #0xe0	; 224
	.db #0xe0	; 224
	.db #0xc0	; 192
	.db #0x00	; 0
	.db #0x00	; 0
	.db #0x00	; 0
	.db #0x00	; 0
	.db #0x00	; 0
	.db #0x00	; 0
	.db #0x01	; 1
	.db #0x01	; 1
	.db #0x03	; 3
	.db #0x03	; 3
	.db #0x0f	; 15
	.db #0x07	; 7
	.db #0x0f	; 15
	.db #0x07	; 7
	.db #0x0f	; 15
	.db #0x07	; 7
	.db #0x1c	; 28
	.db #0x18	; 24
	.db #0x3c	; 60
	.db #0x1c	; 28
	.db #0xfc	; 252
	.db #0x78	; 120	'x'
	.db #0xf8	; 248
	.db #0xf8	; 248
	.db #0xf0	; 240
	.db #0xc0	; 192
	.db #0xe0	; 224
	.db #0xc0	; 192
	.db #0xe0	; 224
	.db #0xc0	; 192
	.db #0xe0	; 224
	.db #0xc0	; 192
	.db #0x00	; 0
	.db #0x00	; 0
	.db #0x00	; 0
	.db #0x00	; 0
	.db #0x00	; 0
	.db #0x00	; 0
	.db #0x03	; 3
	.db #0x01	; 1
	.db #0x03	; 3
	.db #0x03	; 3
	.db #0x0f	; 15
	.db #0x07	; 7
	.db #0x0f	; 15
	.db #0x07	; 7
	.db #0x0f	; 15
	.db #0x07	; 7
	.db #0x3c	; 60
	.db #0x18	; 24
	.db #0x3c	; 60
	.db #0x1c	; 28
	.db #0xfc	; 252
	.db #0x78	; 120	'x'
	.db #0xf8	; 248
	.db #0xf8	; 248
	.db #0xf0	; 240
	.db #0xc0	; 192
	.db #0xe0	; 224
	.db #0xc0	; 192
	.db #0xe0	; 224
	.db #0xc0	; 192
	.db #0xe0	; 224
	.db #0xc0	; 192
	.db #0x3c	; 60
	.db #0x18	; 24
	.db #0x3c	; 60
	.db #0x1c	; 28
	.db #0xfc	; 252
	.db #0x78	; 120	'x'
	.db #0xf8	; 248
	.db #0xf0	; 240
	.db #0xf0	; 240
	.db #0xc0	; 192
	.db #0xe0	; 224
	.db #0xc0	; 192
	.db #0xe0	; 224
	.db #0xc0	; 192
	.db #0xc0	; 192
	.db #0x80	; 128
	.db #0x0f	; 15
	.db #0x0f	; 15
	.db #0x3f	; 63
	.db #0x1e	; 30
	.db #0x3e	; 62
	.db #0x1c	; 28
	.db #0x3c	; 60
	.db #0x1c	; 28
	.db #0x3c	; 60
	.db #0x1c	; 28
	.db #0x1c	; 28
	.db #0x1c	; 28
	.db #0x1c	; 28
	.db #0x1c	; 28
	.db #0x1c	; 28
	.db #0x18	; 24
	.db #0x1f	; 31
	.db #0x0f	; 15
	.db #0x3f	; 63
	.db #0x1e	; 30
	.db #0x3e	; 62
	.db #0x3c	; 60
	.db #0x3c	; 60
	.db #0x3c	; 60
	.db #0x3c	; 60
	.db #0x1c	; 28
	.db #0x3c	; 60
	.db #0x1c	; 28
	.db #0x3c	; 60
	.db #0x1c	; 28
	.db #0x3c	; 60
	.db #0x1c	; 28
	.db #0x1f	; 31
	.db #0x0f	; 15
	.db #0x3f	; 63
	.db #0x1e	; 30
	.db #0x3e	; 62
	.db #0x3c	; 60
	.db #0x3c	; 60
	.db #0x3c	; 60
	.db #0x3c	; 60
	.db #0x1c	; 28
	.db #0x3e	; 62
	.db #0x1c	; 28
	.db #0x3e	; 62
	.db #0x1e	; 30
	.db #0x3e	; 62
	.db #0x1e	; 30
	.db #0x1f	; 31
	.db #0x0f	; 15
	.db #0x3f	; 63
	.db #0x1e	; 30
	.db #0x3e	; 62
	.db #0x3c	; 60
	.db #0x3e	; 62
	.db #0x3c	; 60
	.db #0x3e	; 62
	.db #0x1e	; 30
	.db #0x3e	; 62
	.db #0x3e	; 62
	.db #0x3f	; 63
	.db #0x3e	; 62
	.db #0x3f	; 63
	.db #0x3f	; 63
	.db #0x1f	; 31
	.db #0x0f	; 15
	.db #0x1f	; 31
	.db #0x1e	; 30
	.db #0x3e	; 62
	.db #0x1c	; 28
	.db #0x3e	; 62
	.db #0x1e	; 30
	.db #0x3f	; 63
	.db #0x1e	; 30
	.db #0x3f	; 63
	.db #0x3f	; 63
	.db #0x3f	; 63
	.db #0x3f	; 63
	.db #0x7f	; 127
	.db #0x37	; 55	'7'
	.db #0x00	; 0
	.db #0x00	; 0
	.db #0x00	; 0
	.db #0x00	; 0
	.db #0x00	; 0
	.db #0x00	; 0
	.db #0x00	; 0
	.db #0x00	; 0
	.db #0x00	; 0
	.db #0x00	; 0
	.db #0x00	; 0
	.db #0x00	; 0
	.db #0x80	; 128
	.db #0x80	; 128
	.db #0x80	; 128
	.db #0x80	; 128
	.db #0x00	; 0
	.db #0x00	; 0
	.db #0x00	; 0
	.db #0x00	; 0
	.db #0x01	; 1
	.db #0x01	; 1
	.db #0x07	; 7
	.db #0x03	; 3
	.db #0x0f	; 15
	.db #0x0c	; 12
	.db #0x0d	; 13
	.db #0x08	; 8
	.db #0x0d	; 13
	.db #0x00	; 0
	.db #0x0f	; 15
	.db #0x01	; 1
	.db #0x3c	; 60
	.db #0x18	; 24
	.db #0xfc	; 252
	.db #0x78	; 120	'x'
	.db #0xf8	; 248
	.db #0xf0	; 240
	.db #0xf0	; 240
	.db #0xe0	; 224
	.db #0xe0	; 224
	.db #0xc0	; 192
	.db #0xc0	; 192
	.db #0x80	; 128
	.db #0xc0	; 192
	.db #0x80	; 128
	.db #0xc0	; 192
	.db #0x80	; 128
	.db #0x00	; 0
	.db #0x00	; 0
	.db #0x00	; 0
	.db #0x00	; 0
	.db #0x01	; 1
	.db #0x00	; 0
	.db #0x0f	; 15
	.db #0x03	; 3
	.db #0x0f	; 15
	.db #0x07	; 7
	.db #0x07	; 7
	.db #0x07	; 7
	.db #0x07	; 7
	.db #0x07	; 7
	.db #0x07	; 7
	.db #0x07	; 7
	.db #0x3c	; 60
	.db #0x1c	; 28
	.db #0x7c	; 124
	.db #0x78	; 120	'x'
	.db #0xf8	; 248
	.db #0xf0	; 240
	.db #0xe0	; 224
	.db #0xe0	; 224
	.db #0xc0	; 192
	.db #0xc0	; 192
	.db #0xc0	; 192
	.db #0x80	; 128
	.db #0x80	; 128
	.db #0x80	; 128
	.db #0xc0	; 192
	.db #0x80	; 128
	.db #0x00	; 0
	.db #0x00	; 0
	.db #0x00	; 0
	.db #0x00	; 0
	.db #0x00	; 0
	.db #0x00	; 0
	.db #0x07	; 7
	.db #0x03	; 3
	.db #0x07	; 7
	.db #0x03	; 3
	.db #0x03	; 3
	.db #0x03	; 3
	.db #0x03	; 3
	.db #0x03	; 3
	.db #0x07	; 7
	.db #0x03	; 3
	.db #0x3e	; 62
	.db #0x1e	; 30
	.db #0x7e	; 126
	.db #0x3c	; 60
	.db #0xfc	; 252
	.db #0xf0	; 240
	.db #0xe0	; 224
	.db #0xc0	; 192
	.db #0xc0	; 192
	.db #0x80	; 128
	.db #0x80	; 128
	.db #0x00	; 0
	.db #0x80	; 128
	.db #0x00	; 0
	.db #0xc0	; 192
	.db #0x80	; 128
	.db #0x00	; 0
	.db #0x00	; 0
	.db #0x00	; 0
	.db #0x00	; 0
	.db #0x00	; 0
	.db #0x00	; 0
	.db #0x01	; 1
	.db #0x01	; 1
	.db #0x01	; 1
	.db #0x01	; 1
	.db #0x03	; 3
	.db #0x01	; 1
	.db #0x03	; 3
	.db #0x03	; 3
	.db #0x07	; 7
	.db #0x03	; 3
	.db #0x3f	; 63
	.db #0x3f	; 63
	.db #0x7f	; 127
	.db #0x3e	; 62
	.db #0xfc	; 252
	.db #0xf0	; 240
	.db #0xe0	; 224
	.db #0xc0	; 192
	.db #0xc0	; 192
	.db #0x80	; 128
	.db #0x80	; 128
	.db #0x00	; 0
	.db #0x80	; 128
	.db #0x00	; 0
	.db #0x80	; 128
	.db #0x80	; 128
	.db #0x00	; 0
	.db #0x00	; 0
	.db #0x00	; 0
	.db #0x00	; 0
	.db #0x00	; 0
	.db #0x00	; 0
	.db #0x01	; 1
	.db #0x01	; 1
	.db #0x01	; 1
	.db #0x01	; 1
	.db #0x03	; 3
	.db #0x01	; 1
	.db #0x03	; 3
	.db #0x02	; 2
	.db #0x07	; 7
	.db #0x03	; 3
	.db #0x7f	; 127
	.db #0x3f	; 63
	.db #0x7f	; 127
	.db #0x7e	; 126
	.db #0xfc	; 252
	.db #0xf8	; 248
	.db #0xf0	; 240
	.db #0xe0	; 224
	.db #0xe0	; 224
	.db #0xc0	; 192
	.db #0xe0	; 224
	.db #0x40	; 64
	.db #0x60	; 96
	.db #0x00	; 0
	.db #0xe0	; 224
	.db #0x20	; 32
	.db #0x80	; 128
	.db #0x80	; 128
	.db #0x00	; 0
	.db #0x00	; 0
	.db #0x00	; 0
	.db #0x00	; 0
	.db #0x00	; 0
	.db #0x00	; 0
	.db #0x00	; 0
	.db #0x00	; 0
	.db #0x00	; 0
	.db #0x00	; 0
	.db #0x00	; 0
	.db #0x00	; 0
	.db #0x00	; 0
	.db #0x00	; 0
	.db #0x00	; 0
	.db #0x00	; 0
	.db #0x00	; 0
	.db #0x00	; 0
	.db #0x00	; 0
	.db #0x00	; 0
	.db #0x03	; 3
	.db #0x01	; 1
	.db #0x07	; 7
	.db #0x03	; 3
	.db #0x0f	; 15
	.db #0x07	; 7
	.db #0x0f	; 15
	.db #0x07	; 7
	.db #0x0f	; 15
	.db #0x07	; 7
	.db #0x3c	; 60
	.db #0x18	; 24
	.db #0x3c	; 60
	.db #0x38	; 56	'8'
	.db #0xfc	; 252
	.db #0x78	; 120	'x'
	.db #0xf8	; 248
	.db #0xf0	; 240
	.db #0xf0	; 240
	.db #0xc0	; 192
	.db #0xe0	; 224
	.db #0xc0	; 192
	.db #0xe0	; 224
	.db #0xc0	; 192
	.db #0xc0	; 192
	.db #0x80	; 128
	.db #0x38	; 56	'8'
	.db #0x18	; 24
	.db #0x3c	; 60
	.db #0x38	; 56	'8'
	.db #0xfc	; 252
	.db #0x78	; 120	'x'
	.db #0xf8	; 248
	.db #0xf0	; 240
	.db #0xf0	; 240
	.db #0xe0	; 224
	.db #0xe0	; 224
	.db #0xc0	; 192
	.db #0xe0	; 224
	.db #0xc0	; 192
	.db #0xe0	; 224
	.db #0xc0	; 192
	.db #0x38	; 56	'8'
	.db #0x18	; 24
	.db #0x3c	; 60
	.db #0x38	; 56	'8'
	.db #0xfc	; 252
	.db #0x38	; 56	'8'
	.db #0xf8	; 248
	.db #0xf0	; 240
	.db #0xf0	; 240
	.db #0xe0	; 224
	.db #0xe0	; 224
	.db #0xc0	; 192
	.db #0xe0	; 224
	.db #0xc0	; 192
	.db #0xe0	; 224
	.db #0xc0	; 192
	.db #0x38	; 56	'8'
	.db #0x10	; 16
	.db #0x3c	; 60
	.db #0x38	; 56	'8'
	.db #0x7c	; 124
	.db #0x38	; 56	'8'
	.db #0xf8	; 248
	.db #0xf0	; 240
	.db #0xf0	; 240
	.db #0xc0	; 192
	.db #0xe0	; 224
	.db #0xc0	; 192
	.db #0xe0	; 224
	.db #0xc0	; 192
	.db #0xe0	; 224
	.db #0xc0	; 192
	.db #0x38	; 56	'8'
	.db #0x10	; 16
	.db #0x38	; 56	'8'
	.db #0x38	; 56	'8'
	.db #0x7c	; 124
	.db #0x38	; 56	'8'
	.db #0xf8	; 248
	.db #0xf0	; 240
	.db #0xf0	; 240
	.db #0xe0	; 224
	.db #0xe0	; 224
	.db #0xc0	; 192
	.db #0xc0	; 192
	.db #0xc0	; 192
	.db #0xc0	; 192
	.db #0xc0	; 192
	.db #0x1f	; 31
	.db #0x0f	; 15
	.db #0x3f	; 63
	.db #0x1e	; 30
	.db #0x3e	; 62
	.db #0x3e	; 62
	.db #0x3e	; 62
	.db #0x3e	; 62
	.db #0x3f	; 63
	.db #0x3f	; 63
	.db #0x3f	; 63
	.db #0x3f	; 63
	.db #0x7f	; 127
	.db #0x33	; 51	'3'
	.db #0x7b	; 123
	.db #0x33	; 51	'3'
	.db #0x00	; 0
	.db #0x00	; 0
	.db #0x00	; 0
	.db #0x00	; 0
	.db #0x00	; 0
	.db #0x00	; 0
	.db #0x00	; 0
	.db #0x00	; 0
	.db #0x00	; 0
	.db #0x00	; 0
	.db #0x80	; 128
	.db #0x80	; 128
	.db #0x80	; 128
	.db #0x80	; 128
	.db #0xc0	; 192
	.db #0x80	; 128
	.db #0x0f	; 15
	.db #0x0f	; 15
	.db #0x1f	; 31
	.db #0x1e	; 30
	.db #0x3e	; 62
	.db #0x1e	; 30
	.db #0x3f	; 63
	.db #0x3e	; 62
	.db #0x3f	; 63
	.db #0x3f	; 63
	.db #0x7f	; 127
	.db #0x3f	; 63
	.db #0x7b	; 123
	.db #0x31	; 49	'1'
	.db #0x71	; 113	'q'
	.db #0x71	; 113	'q'
	.db #0x00	; 0
	.db #0x00	; 0
	.db #0x00	; 0
	.db #0x00	; 0
	.db #0x00	; 0
	.db #0x00	; 0
	.db #0x00	; 0
	.db #0x00	; 0
	.db #0x80	; 128
	.db #0x00	; 0
	.db #0xc0	; 192
	.db #0x80	; 128
	.db #0xc0	; 192
	.db #0xc0	; 192
	.db #0xc0	; 192
	.db #0xc0	; 192
	.db #0x0f	; 15
	.db #0x0f	; 15
	.db #0x1f	; 31
	.db #0x1e	; 30
	.db #0x3e	; 62
	.db #0x1e	; 30
	.db #0x3f	; 63
	.db #0x3e	; 62
	.db #0x3f	; 63
	.db #0x3f	; 63
	.db #0x7f	; 127
	.db #0x3b	; 59
	.db #0x79	; 121	'y'
	.db #0x31	; 49	'1'
	.db #0x71	; 113	'q'
	.db #0x70	; 112	'p'
	.db #0x80	; 128
	.db #0x00	; 0
	.db #0x00	; 0
	.db #0x00	; 0
	.db #0x00	; 0
	.db #0x00	; 0
	.db #0x00	; 0
	.db #0x00	; 0
	.db #0x80	; 128
	.db #0x80	; 128
	.db #0xc0	; 192
	.db #0xc0	; 192
	.db #0xe0	; 224
	.db #0xc0	; 192
	.db #0xe0	; 224
	.db #0xc0	; 192
	.db #0x0f	; 15
	.db #0x0f	; 15
	.db #0x1f	; 31
	.db #0x1e	; 30
	.db #0x3e	; 62
	.db #0x1e	; 30
	.db #0x3f	; 63
	.db #0x3e	; 62
	.db #0x3f	; 63
	.db #0x3f	; 63
	.db #0x7f	; 127
	.db #0x3f	; 63
	.db #0x7b	; 123
	.db #0x71	; 113	'q'
	.db #0x70	; 112	'p'
	.db #0x60	; 96
	.db #0x0f	; 15
	.db #0x0f	; 15
	.db #0x1f	; 31
	.db #0x0e	; 14
	.db #0x3e	; 62
	.db #0x1e	; 30
	.db #0x3e	; 62
	.db #0x3e	; 62
	.db #0x3f	; 63
	.db #0x3f	; 63
	.db #0x7f	; 127
	.db #0x3f	; 63
	.db #0x7b	; 123
	.db #0x73	; 115	's'
	.db #0xf1	; 241
	.db #0x60	; 96
	.db #0x80	; 128
	.db #0x00	; 0
	.db #0x00	; 0
	.db #0x00	; 0
	.db #0x00	; 0
	.db #0x00	; 0
	.db #0x00	; 0
	.db #0x00	; 0
	.db #0x80	; 128
	.db #0x00	; 0
	.db #0xc0	; 192
	.db #0x80	; 128
	.db #0xc0	; 192
	.db #0xc0	; 192
	.db #0xe0	; 224
	.db #0xc0	; 192
	.db #0x00	; 0
	.db #0x00	; 0
	.db #0x00	; 0
	.db #0x00	; 0
	.db #0x01	; 1
	.db #0x00	; 0
	.db #0x01	; 1
	.db #0x01	; 1
	.db #0x03	; 3
	.db #0x01	; 1
	.db #0x03	; 3
	.db #0x02	; 2
	.db #0x07	; 7
	.db #0x02	; 2
	.db #0x07	; 7
	.db #0x07	; 7
	.db #0x7f	; 127
	.db #0x3b	; 59
	.db #0xff	; 255
	.db #0x7e	; 126
	.db #0xfc	; 252
	.db #0xf8	; 248
	.db #0xf8	; 248
	.db #0xf0	; 240
	.db #0xf0	; 240
	.db #0x20	; 32
	.db #0x30	; 48	'0'
	.db #0x30	; 48	'0'
	.db #0x30	; 48	'0'
	.db #0x10	; 16
	.db #0xb0	; 176
	.db #0x10	; 16
	.db #0xc0	; 192
	.db #0x80	; 128
	.db #0x00	; 0
	.db #0x00	; 0
	.db #0x00	; 0
	.db #0x00	; 0
	.db #0x00	; 0
	.db #0x00	; 0
	.db #0x00	; 0
	.db #0x00	; 0
	.db #0x00	; 0
	.db #0x00	; 0
	.db #0x00	; 0
	.db #0x00	; 0
	.db #0x00	; 0
	.db #0x00	; 0
	.db #0x00	; 0
	.db #0x00	; 0
	.db #0x00	; 0
	.db #0x00	; 0
	.db #0x01	; 1
	.db #0x01	; 1
	.db #0x03	; 3
	.db #0x01	; 1
	.db #0x03	; 3
	.db #0x03	; 3
	.db #0x07	; 7
	.db #0x02	; 2
	.db #0x06	; 6
	.db #0x06	; 6
	.db #0x0f	; 15
	.db #0x06	; 6
	.db #0x73	; 115	's'
	.db #0x63	; 99	'c'
	.db #0xe7	; 231
	.db #0x62	; 98	'b'
	.db #0xee	; 238
	.db #0xc4	; 196
	.db #0xcc	; 204
	.db #0x88	; 136
	.db #0x9c	; 156
	.db #0x18	; 24
	.db #0x1c	; 28
	.db #0x08	; 8
	.db #0x0c	; 12
	.db #0x0c	; 12
	.db #0x0e	; 14
	.db #0x04	; 4
	.db #0x00	; 0
	.db #0x00	; 0
	.db #0x00	; 0
	.db #0x00	; 0
	.db #0x01	; 1
	.db #0x01	; 1
	.db #0x03	; 3
	.db #0x03	; 3
	.db #0x07	; 7
	.db #0x02	; 2
	.db #0x06	; 6
	.db #0x02	; 2
	.db #0x0e	; 14
	.db #0x04	; 4
	.db #0x0f	; 15
	.db #0x06	; 6
	.db #0x71	; 113	'q'
	.db #0x61	; 97	'a'
	.db #0xe3	; 227
	.db #0xc1	; 193
	.db #0xc3	; 195
	.db #0xc1	; 193
	.db #0x83	; 131
	.db #0x02	; 2
	.db #0x06	; 6
	.db #0x02	; 2
	.db #0x07	; 7
	.db #0x06	; 6
	.db #0x07	; 7
	.db #0x03	; 3
	.db #0x03	; 3
	.db #0x01	; 1
	.db #0xc0	; 192
	.db #0x80	; 128
	.db #0x80	; 128
	.db #0x00	; 0
	.db #0x80	; 128
	.db #0x00	; 0
	.db #0x00	; 0
	.db #0x00	; 0
	.db #0x00	; 0
	.db #0x00	; 0
	.db #0x00	; 0
	.db #0x00	; 0
	.db #0x00	; 0
	.db #0x00	; 0
	.db #0x80	; 128
	.db #0x80	; 128
	.db #0x00	; 0
	.db #0x00	; 0
	.db #0x00	; 0
	.db #0x00	; 0
	.db #0x03	; 3
	.db #0x01	; 1
	.db #0x03	; 3
	.db #0x03	; 3
	.db #0x07	; 7
	.db #0x02	; 2
	.db #0x06	; 6
	.db #0x04	; 4
	.db #0x0e	; 14
	.db #0x04	; 4
	.db #0x0e	; 14
	.db #0x0c	; 12
	.db #0xf1	; 241
	.db #0x60	; 96
	.db #0xe1	; 225
	.db #0xc0	; 192
	.db #0xc1	; 193
	.db #0x81	; 129
	.db #0x81	; 129
	.db #0x01	; 1
	.db #0x01	; 1
	.db #0x01	; 1
	.db #0x03	; 3
	.db #0x01	; 1
	.db #0x03	; 3
	.db #0x03	; 3
	.db #0x03	; 3
	.db #0x03	; 3
	.db #0xc0	; 192
	.db #0x80	; 128
	.db #0xc0	; 192
	.db #0x80	; 128
	.db #0x80	; 128
	.db #0x80	; 128
	.db #0x80	; 128
	.db #0x00	; 0
	.db #0x80	; 128
	.db #0x00	; 0
	.db #0x00	; 0
	.db #0x00	; 0
	.db #0x80	; 128
	.db #0x80	; 128
	.db #0xc0	; 192
	.db #0xc0	; 192
	.db #0x00	; 0
	.db #0x00	; 0
	.db #0x01	; 1
	.db #0x00	; 0
	.db #0x03	; 3
	.db #0x01	; 1
	.db #0x07	; 7
	.db #0x03	; 3
	.db #0x07	; 7
	.db #0x06	; 6
	.db #0x0e	; 14
	.db #0x04	; 4
	.db #0x0c	; 12
	.db #0x0c	; 12
	.db #0x1e	; 30
	.db #0x0c	; 12
	.db #0xe0	; 224
	.db #0xe0	; 224
	.db #0xe1	; 225
	.db #0xc0	; 192
	.db #0xc1	; 193
	.db #0x80	; 128
	.db #0x81	; 129
	.db #0x00	; 0
	.db #0x01	; 1
	.db #0x00	; 0
	.db #0x01	; 1
	.db #0x00	; 0
	.db #0x01	; 1
	.db #0x01	; 1
	.db #0x03	; 3
	.db #0x01	; 1
	.db #0xc0	; 192
	.db #0xc0	; 192
	.db #0xc0	; 192
	.db #0x80	; 128
	.db #0xc0	; 192
	.db #0x80	; 128
	.db #0x80	; 128
	.db #0x80	; 128
	.db #0x80	; 128
	.db #0x00	; 0
	.db #0x80	; 128
	.db #0x80	; 128
	.db #0x80	; 128
	.db #0x80	; 128
	.db #0xc0	; 192
	.db #0xc0	; 192
	.db #0x10	; 16
	.db #0x00	; 0
	.db #0x38	; 56	'8'
	.db #0x38	; 56	'8'
	.db #0x7c	; 124
	.db #0x38	; 56	'8'
	.db #0xf8	; 248
	.db #0xf8	; 248
	.db #0xf8	; 248
	.db #0xf0	; 240
	.db #0xe0	; 224
	.db #0xc0	; 192
	.db #0xc0	; 192
	.db #0xc0	; 192
	.db #0xe0	; 224
	.db #0xc0	; 192
	.db #0x00	; 0
	.db #0x00	; 0
	.db #0x00	; 0
	.db #0x00	; 0
	.db #0x00	; 0
	.db #0x00	; 0
	.db #0x00	; 0
	.db #0x00	; 0
	.db #0x03	; 3
	.db #0x01	; 1
	.db #0x07	; 7
	.db #0x03	; 3
	.db #0x0f	; 15
	.db #0x07	; 7
	.db #0x0f	; 15
	.db #0x07	; 7
	.db #0x00	; 0
	.db #0x00	; 0
	.db #0x38	; 56	'8'
	.db #0x18	; 24
	.db #0x3c	; 60
	.db #0x38	; 56	'8'
	.db #0xfc	; 252
	.db #0x78	; 120	'x'
	.db #0xf8	; 248
	.db #0xf0	; 240
	.db #0xf0	; 240
	.db #0xc0	; 192
	.db #0xc0	; 192
	.db #0xc0	; 192
	.db #0xe0	; 224
	.db #0xc0	; 192
	.db #0x00	; 0
	.db #0x00	; 0
	.db #0x38	; 56	'8'
	.db #0x10	; 16
	.db #0x3c	; 60
	.db #0x38	; 56	'8'
	.db #0xfc	; 252
	.db #0x38	; 56	'8'
	.db #0xf8	; 248
	.db #0xf0	; 240
	.db #0xf0	; 240
	.db #0xc0	; 192
	.db #0xc0	; 192
	.db #0xc0	; 192
	.db #0xc0	; 192
	.db #0xc0	; 192
	.db #0x00	; 0
	.db #0x00	; 0
	.db #0x18	; 24
	.db #0x00	; 0
	.db #0x3c	; 60
	.db #0x18	; 24
	.db #0x7c	; 124
	.db #0x38	; 56	'8'
	.db #0xf8	; 248
	.db #0xf8	; 248
	.db #0xf8	; 248
	.db #0xf0	; 240
	.db #0xe0	; 224
	.db #0xc0	; 192
	.db #0xc0	; 192
	.db #0xc0	; 192
	.db #0x00	; 0
	.db #0x00	; 0
	.db #0x00	; 0
	.db #0x00	; 0
	.db #0x00	; 0
	.db #0x00	; 0
	.db #0x00	; 0
	.db #0x00	; 0
	.db #0x01	; 1
	.db #0x00	; 0
	.db #0x03	; 3
	.db #0x03	; 3
	.db #0x07	; 7
	.db #0x07	; 7
	.db #0x0f	; 15
	.db #0x07	; 7
	.db #0x00	; 0
	.db #0x00	; 0
	.db #0x00	; 0
	.db #0x00	; 0
	.db #0x3c	; 60
	.db #0x18	; 24
	.db #0x3c	; 60
	.db #0x38	; 56	'8'
	.db #0xfc	; 252
	.db #0xf8	; 248
	.db #0xf8	; 248
	.db #0xf0	; 240
	.db #0xf0	; 240
	.db #0xc0	; 192
	.db #0xe0	; 224
	.db #0xc0	; 192
	.db #0x0f	; 15
	.db #0x0f	; 15
	.db #0x1f	; 31
	.db #0x0e	; 14
	.db #0x3e	; 62
	.db #0x1c	; 28
	.db #0x3e	; 62
	.db #0x3e	; 62
	.db #0x3f	; 63
	.db #0x3f	; 63
	.db #0x7f	; 127
	.db #0x3f	; 63
	.db #0x7f	; 127
	.db #0x73	; 115	's'
	.db #0xf1	; 241
	.db #0x60	; 96
	.db #0xc0	; 192
	.db #0x00	; 0
	.db #0x00	; 0
	.db #0x00	; 0
	.db #0x00	; 0
	.db #0x00	; 0
	.db #0x00	; 0
	.db #0x00	; 0
	.db #0x00	; 0
	.db #0x00	; 0
	.db #0xc0	; 192
	.db #0x80	; 128
	.db #0xc0	; 192
	.db #0xc0	; 192
	.db #0xe0	; 224
	.db #0xc0	; 192
	.db #0x0f	; 15
	.db #0x07	; 7
	.db #0x1f	; 31
	.db #0x0e	; 14
	.db #0x3f	; 63
	.db #0x1e	; 30
	.db #0x3e	; 62
	.db #0x3e	; 62
	.db #0x7f	; 127
	.db #0x3e	; 62
	.db #0x7f	; 127
	.db #0x7f	; 127
	.db #0xff	; 255
	.db #0x73	; 115	's'
	.db #0xf3	; 243
	.db #0xe1	; 225
	.db #0xc0	; 192
	.db #0xc0	; 192
	.db #0x00	; 0
	.db #0x00	; 0
	.db #0x00	; 0
	.db #0x00	; 0
	.db #0x00	; 0
	.db #0x00	; 0
	.db #0x00	; 0
	.db #0x00	; 0
	.db #0x80	; 128
	.db #0x80	; 128
	.db #0xc0	; 192
	.db #0xc0	; 192
	.db #0xe0	; 224
	.db #0xc0	; 192
	.db #0x0f	; 15
	.db #0x07	; 7
	.db #0x1f	; 31
	.db #0x0e	; 14
	.db #0x3e	; 62
	.db #0x1e	; 30
	.db #0x3e	; 62
	.db #0x3e	; 62
	.db #0x7e	; 126
	.db #0x3e	; 62
	.db #0x7f	; 127
	.db #0x7f	; 127
	.db #0xff	; 255
	.db #0xe7	; 231
	.db #0xe3	; 227
	.db #0xe3	; 227
	.db #0xc0	; 192
	.db #0xc0	; 192
	.db #0x80	; 128
	.db #0x00	; 0
	.db #0x00	; 0
	.db #0x00	; 0
	.db #0x00	; 0
	.db #0x00	; 0
	.db #0x00	; 0
	.db #0x00	; 0
	.db #0x80	; 128
	.db #0x00	; 0
	.db #0xc0	; 192
	.db #0x80	; 128
	.db #0xc0	; 192
	.db #0xc0	; 192
	.db #0x0f	; 15
	.db #0x07	; 7
	.db #0x1f	; 31
	.db #0x0f	; 15
	.db #0x3f	; 63
	.db #0x1e	; 30
	.db #0x3e	; 62
	.db #0x3c	; 60
	.db #0x7e	; 126
	.db #0x3e	; 62
	.db #0x7f	; 127
	.db #0x7f	; 127
	.db #0xff	; 255
	.db #0xff	; 255
	.db #0xe7	; 231
	.db #0xe3	; 227
	.db #0xe0	; 224
	.db #0xc0	; 192
	.db #0xc0	; 192
	.db #0x00	; 0
	.db #0x00	; 0
	.db #0x00	; 0
	.db #0x00	; 0
	.db #0x00	; 0
	.db #0x00	; 0
	.db #0x00	; 0
	.db #0x00	; 0
	.db #0x00	; 0
	.db #0x80	; 128
	.db #0x80	; 128
	.db #0xc0	; 192
	.db #0x80	; 128
	.db #0x0f	; 15
	.db #0x07	; 7
	.db #0x1f	; 31
	.db #0x0f	; 15
	.db #0x3f	; 63
	.db #0x1e	; 30
	.db #0x3e	; 62
	.db #0x3c	; 60
	.db #0x7e	; 126
	.db #0x3c	; 60
	.db #0xff	; 255
	.db #0x7e	; 126
	.db #0xff	; 255
	.db #0xef	; 239
	.db #0xe7	; 231
	.db #0xc3	; 195
	.db #0xe0	; 224
	.db #0xc0	; 192
	.db #0xc0	; 192
	.db #0x80	; 128
	.db #0x00	; 0
	.db #0x00	; 0
	.db #0x00	; 0
	.db #0x00	; 0
	.db #0x00	; 0
	.db #0x00	; 0
	.db #0x00	; 0
	.db #0x00	; 0
	.db #0x80	; 128
	.db #0x00	; 0
	.db #0xc0	; 192
	.db #0x80	; 128
	.db #0x00	; 0
	.db #0x00	; 0
	.db #0x01	; 1
	.db #0x01	; 1
	.db #0x03	; 3
	.db #0x03	; 3
	.db #0x07	; 7
	.db #0x06	; 6
	.db #0x0e	; 14
	.db #0x04	; 4
	.db #0x0c	; 12
	.db #0x08	; 8
	.db #0x1c	; 28
	.db #0x08	; 8
	.db #0x1e	; 30
	.db #0x1c	; 28
	.db #0xe0	; 224
	.db #0xc0	; 192
	.db #0xc1	; 193
	.db #0xc0	; 192
	.db #0xc1	; 193
	.db #0x80	; 128
	.db #0x01	; 1
	.db #0x00	; 0
	.db #0x01	; 1
	.db #0x00	; 0
	.db #0x01	; 1
	.db #0x00	; 0
	.db #0x03	; 3
	.db #0x01	; 1
	.db #0x03	; 3
	.db #0x01	; 1
	.db #0xe0	; 224
	.db #0xc0	; 192
	.db #0xc0	; 192
	.db #0x80	; 128
	.db #0xc0	; 192
	.db #0x80	; 128
	.db #0x80	; 128
	.db #0x80	; 128
	.db #0x80	; 128
	.db #0x00	; 0
	.db #0x80	; 128
	.db #0x80	; 128
	.db #0x80	; 128
	.db #0x80	; 128
	.db #0xc0	; 192
	.db #0x80	; 128
	.db #0x01	; 1
	.db #0x00	; 0
	.db #0x03	; 3
	.db #0x01	; 1
	.db #0x07	; 7
	.db #0x03	; 3
	.db #0x0f	; 15
	.db #0x06	; 6
	.db #0x0e	; 14
	.db #0x0c	; 12
	.db #0x1c	; 28
	.db #0x08	; 8
	.db #0x18	; 24
	.db #0x18	; 24
	.db #0x3c	; 60
	.db #0x18	; 24
	.db #0xe1	; 225
	.db #0xc0	; 192
	.db #0xc1	; 193
	.db #0x80	; 128
	.db #0x81	; 129
	.db #0x01	; 1
	.db #0x01	; 1
	.db #0x01	; 1
	.db #0x03	; 3
	.db #0x01	; 1
	.db #0x03	; 3
	.db #0x01	; 1
	.db #0x03	; 3
	.db #0x03	; 3
	.db #0x07	; 7
	.db #0x03	; 3
	.db #0xe0	; 224
	.db #0xc0	; 192
	.db #0xc0	; 192
	.db #0x80	; 128
	.db #0xc0	; 192
	.db #0x80	; 128
	.db #0x80	; 128
	.db #0x00	; 0
	.db #0x80	; 128
	.db #0x00	; 0
	.db #0x00	; 0
	.db #0x00	; 0
	.db #0x00	; 0
	.db #0x00	; 0
	.db #0x80	; 128
	.db #0x80	; 128
	.db #0x01	; 1
	.db #0x01	; 1
	.db #0x03	; 3
	.db #0x03	; 3
	.db #0x07	; 7
	.db #0x06	; 6
	.db #0x0e	; 14
	.db #0x04	; 4
	.db #0x0c	; 12
	.db #0x08	; 8
	.db #0x18	; 24
	.db #0x08	; 8
	.db #0x18	; 24
	.db #0x10	; 16
	.db #0x3c	; 60
	.db #0x18	; 24
	.db #0xc1	; 193
	.db #0xc0	; 192
	.db #0x81	; 129
	.db #0x80	; 128
	.db #0x01	; 1
	.db #0x01	; 1
	.db #0x03	; 3
	.db #0x01	; 1
	.db #0x03	; 3
	.db #0x03	; 3
	.db #0x03	; 3
	.db #0x02	; 2
	.db #0x07	; 7
	.db #0x02	; 2
	.db #0x07	; 7
	.db #0x07	; 7
	.db #0xc0	; 192
	.db #0xc0	; 192
	.db #0xc0	; 192
	.db #0x80	; 128
	.db #0x80	; 128
	.db #0x80	; 128
	.db #0x80	; 128
	.db #0x00	; 0
	.db #0x00	; 0
	.db #0x00	; 0
	.db #0x00	; 0
	.db #0x00	; 0
	.db #0x00	; 0
	.db #0x00	; 0
	.db #0x80	; 128
	.db #0x00	; 0
	.db #0x01	; 1
	.db #0x01	; 1
	.db #0x07	; 7
	.db #0x03	; 3
	.db #0x0f	; 15
	.db #0x06	; 6
	.db #0x0e	; 14
	.db #0x0c	; 12
	.db #0x1c	; 28
	.db #0x08	; 8
	.db #0x18	; 24
	.db #0x10	; 16
	.db #0x38	; 56	'8'
	.db #0x10	; 16
	.db #0x3c	; 60
	.db #0x38	; 56	'8'
	.db #0xc3	; 195
	.db #0xc1	; 193
	.db #0x81	; 129
	.db #0x81	; 129
	.db #0x03	; 3
	.db #0x01	; 1
	.db #0x03	; 3
	.db #0x03	; 3
	.db #0x03	; 3
	.db #0x02	; 2
	.db #0x06	; 6
	.db #0x02	; 2
	.db #0x06	; 6
	.db #0x06	; 6
	.db #0x0f	; 15
	.db #0x06	; 6
	.db #0xc0	; 192
	.db #0xc0	; 192
	.db #0xc0	; 192
	.db #0x80	; 128
	.db #0x80	; 128
	.db #0x00	; 0
	.db #0x80	; 128
	.db #0x00	; 0
	.db #0x00	; 0
	.db #0x00	; 0
	.db #0x00	; 0
	.db #0x00	; 0
	.db #0x00	; 0
	.db #0x00	; 0
	.db #0x00	; 0
	.db #0x00	; 0
	.db #0x03	; 3
	.db #0x01	; 1
	.db #0x07	; 7
	.db #0x03	; 3
	.db #0x0f	; 15
	.db #0x06	; 6
	.db #0x1e	; 30
	.db #0x0c	; 12
	.db #0x1c	; 28
	.db #0x18	; 24
	.db #0x38	; 56	'8'
	.db #0x10	; 16
	.db #0x30	; 48	'0'
	.db #0x30	; 48	'0'
	.db #0x78	; 120	'x'
	.db #0x30	; 48	'0'
	.db #0xc3	; 195
	.db #0x81	; 129
	.db #0x83	; 131
	.db #0x01	; 1
	.db #0x03	; 3
	.db #0x03	; 3
	.db #0x03	; 3
	.db #0x02	; 2
	.db #0x07	; 7
	.db #0x02	; 2
	.db #0x06	; 6
	.db #0x04	; 4
	.db #0x06	; 6
	.db #0x04	; 4
	.db #0x0f	; 15
	.db #0x06	; 6
	.db #0xc0	; 192
	.db #0x80	; 128
	.db #0xc0	; 192
	.db #0x80	; 128
	.db #0x80	; 128
	.db #0x00	; 0
	.db #0x00	; 0
	.db #0x00	; 0
	.db #0x00	; 0
	.db #0x00	; 0
	.db #0x00	; 0
	.db #0x00	; 0
	.db #0x00	; 0
	.db #0x00	; 0
	.db #0x00	; 0
	.db #0x00	; 0
_TILESETWALKER_26_50:
	.db #0x00	; 0
	.db #0x00	; 0
	.db #0x00	; 0
	.db #0x00	; 0
	.db #0x00	; 0
	.db #0x00	; 0
	.db #0x00	; 0
	.db #0x00	; 0
	.db #0x00	; 0
	.db #0x00	; 0
	.db #0x00	; 0
	.db #0x00	; 0
	.db #0x00	; 0
	.db #0x00	; 0
	.db #0x00	; 0
	.db #0x00	; 0
	.db #0x00	; 0
	.db #0x00	; 0
	.db #0x00	; 0
	.db #0x00	; 0
	.db #0x00	; 0
	.db #0x00	; 0
	.db #0x00	; 0
	.db #0x00	; 0
	.db #0x01	; 1
	.db #0x00	; 0
	.db #0x03	; 3
	.db #0x03	; 3
	.db #0x07	; 7
	.db #0x07	; 7
	.db #0x0f	; 15
	.db #0x07	; 7
	.db #0x00	; 0
	.db #0x00	; 0
	.db #0x00	; 0
	.db #0x00	; 0
	.db #0x18	; 24
	.db #0x18	; 24
	.db #0x3c	; 60
	.db #0x3c	; 60
	.db #0xfc	; 252
	.db #0xf8	; 248
	.db #0xf8	; 248
	.db #0xf0	; 240
	.db #0xf0	; 240
	.db #0xc0	; 192
	.db #0xe0	; 224
	.db #0xc0	; 192
	.db #0x00	; 0
	.db #0x00	; 0
	.db #0x00	; 0
	.db #0x00	; 0
	.db #0x18	; 24
	.db #0x18	; 24
	.db #0x3c	; 60
	.db #0x1c	; 28
	.db #0xfc	; 252
	.db #0xf8	; 248
	.db #0xf8	; 248
	.db #0xf0	; 240
	.db #0xf0	; 240
	.db #0xc0	; 192
	.db #0xe0	; 224
	.db #0xc0	; 192
	.db #0x00	; 0
	.db #0x00	; 0
	.db #0x00	; 0
	.db #0x00	; 0
	.db #0x18	; 24
	.db #0x18	; 24
	.db #0x3c	; 60
	.db #0x1c	; 28
	.db #0xfc	; 252
	.db #0xf8	; 248
	.db #0xf8	; 248
	.db #0xf8	; 248
	.db #0xf0	; 240
	.db #0xc0	; 192
	.db #0xc0	; 192
	.db #0xc0	; 192
	.db #0x00	; 0
	.db #0x00	; 0
	.db #0x00	; 0
	.db #0x00	; 0
	.db #0x00	; 0
	.db #0x00	; 0
	.db #0x00	; 0
	.db #0x00	; 0
	.db #0x01	; 1
	.db #0x00	; 0
	.db #0x07	; 7
	.db #0x03	; 3
	.db #0x0f	; 15
	.db #0x07	; 7
	.db #0x0f	; 15
	.db #0x07	; 7
	.db #0x00	; 0
	.db #0x00	; 0
	.db #0x00	; 0
	.db #0x00	; 0
	.db #0x18	; 24
	.db #0x18	; 24
	.db #0x3c	; 60
	.db #0x38	; 56	'8'
	.db #0xfc	; 252
	.db #0xf8	; 248
	.db #0xf8	; 248
	.db #0xf0	; 240
	.db #0xf0	; 240
	.db #0xc0	; 192
	.db #0xc0	; 192
	.db #0xc0	; 192
	.db #0x00	; 0
	.db #0x00	; 0
	.db #0x00	; 0
	.db #0x00	; 0
	.db #0x00	; 0
	.db #0x00	; 0
	.db #0x00	; 0
	.db #0x00	; 0
	.db #0x01	; 1
	.db #0x01	; 1
	.db #0x07	; 7
	.db #0x03	; 3
	.db #0x0f	; 15
	.db #0x07	; 7
	.db #0x0f	; 15
	.db #0x07	; 7
	.db #0x00	; 0
	.db #0x00	; 0
	.db #0x00	; 0
	.db #0x00	; 0
	.db #0x38	; 56	'8'
	.db #0x18	; 24
	.db #0x7c	; 124
	.db #0x38	; 56	'8'
	.db #0xfc	; 252
	.db #0xf8	; 248
	.db #0xf8	; 248
	.db #0xf0	; 240
	.db #0xe0	; 224
	.db #0xc0	; 192
	.db #0xc0	; 192
	.db #0xc0	; 192
	.db #0x00	; 0
	.db #0x00	; 0
	.db #0x00	; 0
	.db #0x00	; 0
	.db #0x00	; 0
	.db #0x00	; 0
	.db #0x00	; 0
	.db #0x00	; 0
	.db #0x00	; 0
	.db #0x00	; 0
	.db #0x00	; 0
	.db #0x00	; 0
	.db #0x01	; 1
	.db #0x00	; 0
	.db #0x01	; 1
	.db #0x01	; 1
	.db #0x0f	; 15
	.db #0x0f	; 15
	.db #0x1f	; 31
	.db #0x0f	; 15
	.db #0x3f	; 63
	.db #0x1e	; 30
	.db #0x7e	; 126
	.db #0x3c	; 60
	.db #0x7e	; 126
	.db #0x7c	; 124
	.db #0xff	; 255
	.db #0x7e	; 126
	.db #0xff	; 255
	.db #0xef	; 239
	.db #0xe7	; 231
	.db #0xc7	; 199
	.db #0xe0	; 224
	.db #0xc0	; 192
	.db #0xc0	; 192
	.db #0x80	; 128
	.db #0x00	; 0
	.db #0x00	; 0
	.db #0x00	; 0
	.db #0x00	; 0
	.db #0x00	; 0
	.db #0x00	; 0
	.db #0x00	; 0
	.db #0x00	; 0
	.db #0x00	; 0
	.db #0x00	; 0
	.db #0x80	; 128
	.db #0x80	; 128
	.db #0x00	; 0
	.db #0x00	; 0
	.db #0x00	; 0
	.db #0x00	; 0
	.db #0x00	; 0
	.db #0x00	; 0
	.db #0x00	; 0
	.db #0x00	; 0
	.db #0x00	; 0
	.db #0x00	; 0
	.db #0x00	; 0
	.db #0x00	; 0
	.db #0x01	; 1
	.db #0x00	; 0
	.db #0x03	; 3
	.db #0x01	; 1
	.db #0x0f	; 15
	.db #0x0f	; 15
	.db #0x1f	; 31
	.db #0x0f	; 15
	.db #0x3e	; 62
	.db #0x3c	; 60
	.db #0x7c	; 124
	.db #0x3c	; 60
	.db #0x7c	; 124
	.db #0x7c	; 124
	.db #0xfe	; 254
	.db #0xfe	; 254
	.db #0xff	; 255
	.db #0xef	; 239
	.db #0xe7	; 231
	.db #0xc7	; 199
	.db #0xc0	; 192
	.db #0xc0	; 192
	.db #0xc0	; 192
	.db #0x80	; 128
	.db #0x00	; 0
	.db #0x00	; 0
	.db #0x00	; 0
	.db #0x00	; 0
	.db #0x00	; 0
	.db #0x00	; 0
	.db #0x00	; 0
	.db #0x00	; 0
	.db #0x00	; 0
	.db #0x00	; 0
	.db #0x80	; 128
	.db #0x00	; 0
	.db #0x00	; 0
	.db #0x00	; 0
	.db #0x00	; 0
	.db #0x00	; 0
	.db #0x00	; 0
	.db #0x00	; 0
	.db #0x00	; 0
	.db #0x00	; 0
	.db #0x00	; 0
	.db #0x00	; 0
	.db #0x00	; 0
	.db #0x00	; 0
	.db #0x01	; 1
	.db #0x01	; 1
	.db #0x03	; 3
	.db #0x01	; 1
	.db #0x0f	; 15
	.db #0x0f	; 15
	.db #0x1f	; 31
	.db #0x1f	; 31
	.db #0x3e	; 62
	.db #0x3c	; 60
	.db #0x7c	; 124
	.db #0x78	; 120	'x'
	.db #0xfc	; 252
	.db #0x7c	; 124
	.db #0xfe	; 254
	.db #0xfe	; 254
	.db #0xff	; 255
	.db #0xce	; 206
	.db #0xcf	; 207
	.db #0xc7	; 199
	.db #0xc0	; 192
	.db #0xc0	; 192
	.db #0xc0	; 192
	.db #0x80	; 128
	.db #0x00	; 0
	.db #0x00	; 0
	.db #0x00	; 0
	.db #0x00	; 0
	.db #0x00	; 0
	.db #0x00	; 0
	.db #0x00	; 0
	.db #0x00	; 0
	.db #0x00	; 0
	.db #0x00	; 0
	.db #0x00	; 0
	.db #0x00	; 0
	.db #0x00	; 0
	.db #0x00	; 0
	.db #0x00	; 0
	.db #0x00	; 0
	.db #0x00	; 0
	.db #0x00	; 0
	.db #0x00	; 0
	.db #0x00	; 0
	.db #0x00	; 0
	.db #0x00	; 0
	.db #0x01	; 1
	.db #0x00	; 0
	.db #0x01	; 1
	.db #0x01	; 1
	.db #0x03	; 3
	.db #0x01	; 1
	.db #0x0f	; 15
	.db #0x0f	; 15
	.db #0x1f	; 31
	.db #0x1f	; 31
	.db #0x7e	; 126
	.db #0x3c	; 60
	.db #0x7c	; 124
	.db #0x78	; 120	'x'
	.db #0xfc	; 252
	.db #0x7c	; 124
	.db #0xfe	; 254
	.db #0xfc	; 252
	.db #0xff	; 255
	.db #0xce	; 206
	.db #0xcf	; 207
	.db #0x87	; 135
	.db #0xc0	; 192
	.db #0xc0	; 192
	.db #0xc0	; 192
	.db #0x00	; 0
	.db #0x00	; 0
	.db #0x00	; 0
	.db #0x00	; 0
	.db #0x00	; 0
	.db #0x00	; 0
	.db #0x00	; 0
	.db #0x00	; 0
	.db #0x00	; 0
	.db #0x00	; 0
	.db #0x00	; 0
	.db #0x00	; 0
	.db #0x00	; 0
	.db #0x00	; 0
	.db #0x00	; 0
	.db #0x00	; 0
	.db #0x00	; 0
	.db #0x00	; 0
	.db #0x00	; 0
	.db #0x00	; 0
	.db #0x00	; 0
	.db #0x00	; 0
	.db #0x00	; 0
	.db #0x01	; 1
	.db #0x00	; 0
	.db #0x01	; 1
	.db #0x01	; 1
	.db #0x03	; 3
	.db #0x03	; 3
	.db #0x1f	; 31
	.db #0x0f	; 15
	.db #0x3f	; 63
	.db #0x1f	; 31
	.db #0x7e	; 126
	.db #0x3c	; 60
	.db #0x7c	; 124
	.db #0x78	; 120	'x'
	.db #0xfc	; 252
	.db #0x78	; 120	'x'
	.db #0xfe	; 254
	.db #0xfc	; 252
	.db #0xfe	; 254
	.db #0xce	; 206
	.db #0xcf	; 207
	.db #0x8f	; 143
	.db #0xc0	; 192
	.db #0x80	; 128
	.db #0x80	; 128
	.db #0x00	; 0
	.db #0x00	; 0
	.db #0x00	; 0
	.db #0x00	; 0
	.db #0x00	; 0
	.db #0x00	; 0
	.db #0x00	; 0
	.db #0x00	; 0
	.db #0x00	; 0
	.db #0x00	; 0
	.db #0x00	; 0
	.db #0x00	; 0
	.db #0x00	; 0
	.db #0x03	; 3
	.db #0x01	; 1
	.db #0x07	; 7
	.db #0x07	; 7
	.db #0x0f	; 15
	.db #0x0e	; 14
	.db #0x1c	; 28
	.db #0x08	; 8
	.db #0x18	; 24
	.db #0x10	; 16
	.db #0x30	; 48	'0'
	.db #0x10	; 16
	.db #0x70	; 112	'p'
	.db #0x20	; 32
	.db #0x78	; 120	'x'
	.db #0x30	; 48	'0'
	.db #0xc3	; 195
	.db #0x83	; 131
	.db #0x83	; 131
	.db #0x01	; 1
	.db #0x03	; 3
	.db #0x03	; 3
	.db #0x07	; 7
	.db #0x02	; 2
	.db #0x06	; 6
	.db #0x04	; 4
	.db #0x0e	; 14
	.db #0x04	; 4
	.db #0x0c	; 12
	.db #0x04	; 4
	.db #0x0f	; 15
	.db #0x0e	; 14
	.db #0x80	; 128
	.db #0x80	; 128
	.db #0x80	; 128
	.db #0x80	; 128
	.db #0x80	; 128
	.db #0x00	; 0
	.db #0x00	; 0
	.db #0x00	; 0
	.db #0x00	; 0
	.db #0x00	; 0
	.db #0x00	; 0
	.db #0x00	; 0
	.db #0x00	; 0
	.db #0x00	; 0
	.db #0x00	; 0
	.db #0x00	; 0
	.db #0x03	; 3
	.db #0x03	; 3
	.db #0x0f	; 15
	.db #0x07	; 7
	.db #0x1e	; 30
	.db #0x0c	; 12
	.db #0x1c	; 28
	.db #0x18	; 24
	.db #0x38	; 56	'8'
	.db #0x10	; 16
	.db #0x30	; 48	'0'
	.db #0x20	; 32
	.db #0x70	; 112	'p'
	.db #0x20	; 32
	.db #0x70	; 112	'p'
	.db #0x70	; 112	'p'
	.db #0xc3	; 195
	.db #0x83	; 131
	.db #0x83	; 131
	.db #0x03	; 3
	.db #0x07	; 7
	.db #0x02	; 2
	.db #0x07	; 7
	.db #0x06	; 6
	.db #0x0e	; 14
	.db #0x04	; 4
	.db #0x0c	; 12
	.db #0x00	; 0
	.db #0x0c	; 12
	.db #0x08	; 8
	.db #0x1e	; 30
	.db #0x0c	; 12
	.db #0x80	; 128
	.db #0x80	; 128
	.db #0x80	; 128
	.db #0x00	; 0
	.db #0x00	; 0
	.db #0x00	; 0
	.db #0x00	; 0
	.db #0x00	; 0
	.db #0x00	; 0
	.db #0x00	; 0
	.db #0x00	; 0
	.db #0x00	; 0
	.db #0x00	; 0
	.db #0x00	; 0
	.db #0x00	; 0
	.db #0x00	; 0
	.db #0x07	; 7
	.db #0x03	; 3
	.db #0x0f	; 15
	.db #0x06	; 6
	.db #0x1e	; 30
	.db #0x0c	; 12
	.db #0x3c	; 60
	.db #0x18	; 24
	.db #0x38	; 56	'8'
	.db #0x30	; 48	'0'
	.db #0x70	; 112	'p'
	.db #0x20	; 32
	.db #0x60	; 96
	.db #0x60	; 96
	.db #0xf0	; 240
	.db #0x70	; 112	'p'
	.db #0x87	; 135
	.db #0x03	; 3
	.db #0x07	; 7
	.db #0x03	; 3
	.db #0x07	; 7
	.db #0x06	; 6
	.db #0x0e	; 14
	.db #0x04	; 4
	.db #0x0c	; 12
	.db #0x04	; 4
	.db #0x0c	; 12
	.db #0x08	; 8
	.db #0x1c	; 28
	.db #0x08	; 8
	.db #0x1e	; 30
	.db #0x1c	; 28
	.db #0x80	; 128
	.db #0x00	; 0
	.db #0x80	; 128
	.db #0x00	; 0
	.db #0x00	; 0
	.db #0x00	; 0
	.db #0x00	; 0
	.db #0x00	; 0
	.db #0x00	; 0
	.db #0x00	; 0
	.db #0x00	; 0
	.db #0x00	; 0
	.db #0x00	; 0
	.db #0x00	; 0
	.db #0x00	; 0
	.db #0x00	; 0
	.db #0x07	; 7
	.db #0x03	; 3
	.db #0x0f	; 15
	.db #0x0e	; 14
	.db #0x1e	; 30
	.db #0x1c	; 28
	.db #0x38	; 56	'8'
	.db #0x10	; 16
	.db #0x30	; 48	'0'
	.db #0x20	; 32
	.db #0x60	; 96
	.db #0x20	; 32
	.db #0xe0	; 224
	.db #0x60	; 96
	.db #0xf0	; 240
	.db #0x60	; 96
	.db #0x87	; 135
	.db #0x03	; 3
	.db #0x07	; 7
	.db #0x03	; 3
	.db #0x07	; 7
	.db #0x06	; 6
	.db #0x0e	; 14
	.db #0x04	; 4
	.db #0x0c	; 12
	.db #0x08	; 8
	.db #0x18	; 24
	.db #0x08	; 8
	.db #0x18	; 24
	.db #0x18	; 24
	.db #0x3c	; 60
	.db #0x18	; 24
	.db #0x07	; 7
	.db #0x07	; 7
	.db #0x1f	; 31
	.db #0x0e	; 14
	.db #0x1c	; 28
	.db #0x18	; 24
	.db #0x38	; 56	'8'
	.db #0x10	; 16
	.db #0x70	; 112	'p'
	.db #0x20	; 32
	.db #0x60	; 96
	.db #0x40	; 64
	.db #0xe0	; 224
	.db #0xc0	; 192
	.db #0xe0	; 224
	.db #0xe0	; 224
	.db #0x87	; 135
	.db #0x07	; 7
	.db #0x07	; 7
	.db #0x02	; 2
	.db #0x0e	; 14
	.db #0x06	; 6
	.db #0x0e	; 14
	.db #0x0c	; 12
	.db #0x1c	; 28
	.db #0x08	; 8
	.db #0x18	; 24
	.db #0x00	; 0
	.db #0x18	; 24
	.db #0x10	; 16
	.db #0x3c	; 60
	.db #0x18	; 24
	.db #0x00	; 0
	.db #0x00	; 0
	.db #0x00	; 0
	.db #0x00	; 0
	.db #0x00	; 0
	.db #0x00	; 0
	.db #0x00	; 0
	.db #0x00	; 0
	.db #0x03	; 3
	.db #0x01	; 1
	.db #0x07	; 7
	.db #0x07	; 7
	.db #0x0f	; 15
	.db #0x07	; 7
	.db #0x0f	; 15
	.db #0x0f	; 15
	.db #0x00	; 0
	.db #0x00	; 0
	.db #0x00	; 0
	.db #0x00	; 0
	.db #0x38	; 56	'8'
	.db #0x18	; 24
	.db #0x7c	; 124
	.db #0x38	; 56	'8'
	.db #0xf8	; 248
	.db #0xf8	; 248
	.db #0xf8	; 248
	.db #0xf0	; 240
	.db #0xe0	; 224
	.db #0xc0	; 192
	.db #0xc0	; 192
	.db #0xc0	; 192
	.db #0x00	; 0
	.db #0x00	; 0
	.db #0x10	; 16
	.db #0x00	; 0
	.db #0x38	; 56	'8'
	.db #0x38	; 56	'8'
	.db #0xfc	; 252
	.db #0x38	; 56	'8'
	.db #0xf8	; 248
	.db #0xf8	; 248
	.db #0xf0	; 240
	.db #0xf0	; 240
	.db #0xe0	; 224
	.db #0xc0	; 192
	.db #0xc0	; 192
	.db #0xc0	; 192
	.db #0x00	; 0
	.db #0x00	; 0
	.db #0x00	; 0
	.db #0x00	; 0
	.db #0x00	; 0
	.db #0x00	; 0
	.db #0x00	; 0
	.db #0x00	; 0
	.db #0x03	; 3
	.db #0x01	; 1
	.db #0x0f	; 15
	.db #0x07	; 7
	.db #0x0f	; 15
	.db #0x07	; 7
	.db #0x0f	; 15
	.db #0x0f	; 15
	.db #0x00	; 0
	.db #0x00	; 0
	.db #0x18	; 24
	.db #0x00	; 0
	.db #0x38	; 56	'8'
	.db #0x38	; 56	'8'
	.db #0xfc	; 252
	.db #0x38	; 56	'8'
	.db #0xf8	; 248
	.db #0xf0	; 240
	.db #0xf0	; 240
	.db #0xe0	; 224
	.db #0xe0	; 224
	.db #0xc0	; 192
	.db #0xc0	; 192
	.db #0xc0	; 192
	.db #0x00	; 0
	.db #0x00	; 0
	.db #0x00	; 0
	.db #0x00	; 0
	.db #0x00	; 0
	.db #0x00	; 0
	.db #0x01	; 1
	.db #0x00	; 0
	.db #0x03	; 3
	.db #0x03	; 3
	.db #0x0f	; 15
	.db #0x07	; 7
	.db #0x0f	; 15
	.db #0x07	; 7
	.db #0x0f	; 15
	.db #0x0f	; 15
	.db #0x00	; 0
	.db #0x00	; 0
	.db #0x18	; 24
	.db #0x10	; 16
	.db #0x3c	; 60
	.db #0x38	; 56	'8'
	.db #0xfc	; 252
	.db #0xf8	; 248
	.db #0xf8	; 248
	.db #0xf0	; 240
	.db #0xf0	; 240
	.db #0xc0	; 192
	.db #0xe0	; 224
	.db #0xc0	; 192
	.db #0xc0	; 192
	.db #0xc0	; 192
	.db #0x00	; 0
	.db #0x00	; 0
	.db #0x00	; 0
	.db #0x00	; 0
	.db #0x00	; 0
	.db #0x00	; 0
	.db #0x01	; 1
	.db #0x00	; 0
	.db #0x07	; 7
	.db #0x03	; 3
	.db #0x0f	; 15
	.db #0x07	; 7
	.db #0x0f	; 15
	.db #0x07	; 7
	.db #0x0f	; 15
	.db #0x0f	; 15
	.db #0x00	; 0
	.db #0x00	; 0
	.db #0x38	; 56	'8'
	.db #0x10	; 16
	.db #0x38	; 56	'8'
	.db #0x38	; 56	'8'
	.db #0xf8	; 248
	.db #0xf8	; 248
	.db #0xf8	; 248
	.db #0xf0	; 240
	.db #0xf0	; 240
	.db #0xc0	; 192
	.db #0xe0	; 224
	.db #0xc0	; 192
	.db #0xc0	; 192
	.db #0xc0	; 192
	.db #0x00	; 0
	.db #0x00	; 0
	.db #0x00	; 0
	.db #0x00	; 0
	.db #0x00	; 0
	.db #0x00	; 0
	.db #0x00	; 0
	.db #0x00	; 0
	.db #0x00	; 0
	.db #0x00	; 0
	.db #0x01	; 1
	.db #0x00	; 0
	.db #0x03	; 3
	.db #0x01	; 1
	.db #0x03	; 3
	.db #0x03	; 3
	.db #0x1f	; 31
	.db #0x0f	; 15
	.db #0x3f	; 63
	.db #0x1e	; 30
	.db #0x7c	; 124
	.db #0x3c	; 60
	.db #0x7c	; 124
	.db #0x78	; 120	'x'
	.db #0xfc	; 252
	.db #0x78	; 120	'x'
	.db #0xfe	; 254
	.db #0xfc	; 252
	.db #0xfe	; 254
	.db #0xde	; 222
	.db #0xcf	; 207
	.db #0x8e	; 142
	.db #0x1f	; 31
	.db #0x0f	; 15
	.db #0x3f	; 63
	.db #0x1e	; 30
	.db #0x7c	; 124
	.db #0x3c	; 60
	.db #0x7c	; 124
	.db #0x78	; 120	'x'
	.db #0xfc	; 252
	.db #0xf8	; 248
	.db #0xfc	; 252
	.db #0xfc	; 252
	.db #0xfe	; 254
	.db #0xde	; 222
	.db #0xce	; 206
	.db #0x8e	; 142
	.db #0x1f	; 31
	.db #0x0f	; 15
	.db #0x3f	; 63
	.db #0x1e	; 30
	.db #0x7c	; 124
	.db #0x7c	; 124
	.db #0x7c	; 124
	.db #0x78	; 120	'x'
	.db #0xfc	; 252
	.db #0x78	; 120	'x'
	.db #0xfc	; 252
	.db #0xfc	; 252
	.db #0xfe	; 254
	.db #0xdc	; 220
	.db #0xce	; 206
	.db #0x8e	; 142
	.db #0xc0	; 192
	.db #0x80	; 128
	.db #0x00	; 0
	.db #0x00	; 0
	.db #0x00	; 0
	.db #0x00	; 0
	.db #0x00	; 0
	.db #0x00	; 0
	.db #0x00	; 0
	.db #0x00	; 0
	.db #0x00	; 0
	.db #0x00	; 0
	.db #0x00	; 0
	.db #0x00	; 0
	.db #0x00	; 0
	.db #0x00	; 0
	.db #0x1f	; 31
	.db #0x0f	; 15
	.db #0x3f	; 63
	.db #0x3c	; 60
	.db #0x7c	; 124
	.db #0x3c	; 60
	.db #0x7c	; 124
	.db #0x78	; 120	'x'
	.db #0xfc	; 252
	.db #0x78	; 120	'x'
	.db #0xfc	; 252
	.db #0xfc	; 252
	.db #0xfe	; 254
	.db #0xfc	; 252
	.db #0xfe	; 254
	.db #0xce	; 206
	.db #0x00	; 0
	.db #0x00	; 0
	.db #0x00	; 0
	.db #0x00	; 0
	.db #0x00	; 0
	.db #0x00	; 0
	.db #0x00	; 0
	.db #0x00	; 0
	.db #0x00	; 0
	.db #0x00	; 0
	.db #0x00	; 0
	.db #0x00	; 0
	.db #0x00	; 0
	.db #0x00	; 0
	.db #0x01	; 1
	.db #0x00	; 0
	.db #0x1f	; 31
	.db #0x1f	; 31
	.db #0x3e	; 62
	.db #0x3c	; 60
	.db #0x7c	; 124
	.db #0x78	; 120	'x'
	.db #0x7c	; 124
	.db #0x78	; 120	'x'
	.db #0xfc	; 252
	.db #0x78	; 120	'x'
	.db #0xfc	; 252
	.db #0x7c	; 124
	.db #0xfc	; 252
	.db #0xfc	; 252
	.db #0xfe	; 254
	.db #0xcc	; 204
	.db #0x07	; 7
	.db #0x07	; 7
	.db #0x1f	; 31
	.db #0x0e	; 14
	.db #0x3c	; 60
	.db #0x18	; 24
	.db #0x38	; 56	'8'
	.db #0x30	; 48	'0'
	.db #0x70	; 112	'p'
	.db #0x20	; 32
	.db #0xe0	; 224
	.db #0x40	; 64
	.db #0xe0	; 224
	.db #0xc0	; 192
	.db #0xe0	; 224
	.db #0xe0	; 224
	.db #0x87	; 135
	.db #0x07	; 7
	.db #0x07	; 7
	.db #0x06	; 6
	.db #0x0e	; 14
	.db #0x0c	; 12
	.db #0x1c	; 28
	.db #0x08	; 8
	.db #0x1c	; 28
	.db #0x08	; 8
	.db #0x18	; 24
	.db #0x10	; 16
	.db #0x30	; 48	'0'
	.db #0x10	; 16
	.db #0x3c	; 60
	.db #0x38	; 56	'8'
	.db #0x0f	; 15
	.db #0x07	; 7
	.db #0x1e	; 30
	.db #0x0e	; 14
	.db #0x3c	; 60
	.db #0x18	; 24
	.db #0x38	; 56	'8'
	.db #0x30	; 48	'0'
	.db #0x70	; 112	'p'
	.db #0x20	; 32
	.db #0xe0	; 224
	.db #0x40	; 64
	.db #0xc0	; 192
	.db #0xc0	; 192
	.db #0xe0	; 224
	.db #0x40	; 64
	.db #0x87	; 135
	.db #0x06	; 6
	.db #0x07	; 7
	.db #0x06	; 6
	.db #0x0e	; 14
	.db #0x0c	; 12
	.db #0x1c	; 28
	.db #0x08	; 8
	.db #0x18	; 24
	.db #0x10	; 16
	.db #0x38	; 56	'8'
	.db #0x10	; 16
	.db #0x30	; 48	'0'
	.db #0x30	; 48	'0'
	.db #0x78	; 120	'x'
	.db #0x30	; 48	'0'
	.db #0x07	; 7
	.db #0x07	; 7
	.db #0x1f	; 31
	.db #0x0e	; 14
	.db #0x1c	; 28
	.db #0x18	; 24
	.db #0x38	; 56	'8'
	.db #0x10	; 16
	.db #0x70	; 112	'p'
	.db #0x20	; 32
	.db #0xe0	; 224
	.db #0xc0	; 192
	.db #0xe0	; 224
	.db #0xc0	; 192
	.db #0xe0	; 224
	.db #0x40	; 64
	.db #0x8f	; 143
	.db #0x06	; 6
	.db #0x0f	; 15
	.db #0x06	; 6
	.db #0x1e	; 30
	.db #0x0c	; 12
	.db #0x1c	; 28
	.db #0x18	; 24
	.db #0x38	; 56	'8'
	.db #0x10	; 16
	.db #0x30	; 48	'0'
	.db #0x20	; 32
	.db #0x70	; 112	'p'
	.db #0x20	; 32
	.db #0x78	; 120	'x'
	.db #0x70	; 112	'p'
	.db #0x03	; 3
	.db #0x01	; 1
	.db #0x0f	; 15
	.db #0x07	; 7
	.db #0x1f	; 31
	.db #0x0e	; 14
	.db #0x1c	; 28
	.db #0x18	; 24
	.db #0x38	; 56	'8'
	.db #0x30	; 48	'0'
	.db #0xe0	; 224
	.db #0x60	; 96
	.db #0xe0	; 224
	.db #0x40	; 64
	.db #0xe0	; 224
	.db #0x40	; 64
	.db #0xce	; 206
	.db #0x86	; 134
	.db #0x8e	; 142
	.db #0x06	; 6
	.db #0x1e	; 30
	.db #0x0c	; 12
	.db #0x1c	; 28
	.db #0x18	; 24
	.db #0x38	; 56	'8'
	.db #0x10	; 16
	.db #0x70	; 112	'p'
	.db #0x20	; 32
	.db #0x60	; 96
	.db #0x60	; 96
	.db #0xf0	; 240
	.db #0x60	; 96
	.db #0x01	; 1
	.db #0x01	; 1
	.db #0x07	; 7
	.db #0x07	; 7
	.db #0x0f	; 15
	.db #0x0e	; 14
	.db #0x1c	; 28
	.db #0x18	; 24
	.db #0x38	; 56	'8'
	.db #0x10	; 16
	.db #0xf0	; 240
	.db #0x60	; 96
	.db #0xe0	; 224
	.db #0x40	; 64
	.db #0xe0	; 224
	.db #0x40	; 64
	.db #0xce	; 206
	.db #0x8e	; 142
	.db #0x8e	; 142
	.db #0x8c	; 140
	.db #0x1c	; 28
	.db #0x1c	; 28
	.db #0x38	; 56	'8'
	.db #0x10	; 16
	.db #0x30	; 48	'0'
	.db #0x20	; 32
	.db #0x60	; 96
	.db #0x20	; 32
	.db #0x60	; 96
	.db #0x40	; 64
	.db #0xf0	; 240
	.db #0x60	; 96
	.db #0x00	; 0
	.db #0x00	; 0
	.db #0x00	; 0
	.db #0x00	; 0
	.db #0x00	; 0
	.db #0x00	; 0
	.db #0x01	; 1
	.db #0x01	; 1
	.db #0x07	; 7
	.db #0x03	; 3
	.db #0x0f	; 15
	.db #0x07	; 7
	.db #0x0f	; 15
	.db #0x07	; 7
	.db #0x0f	; 15
	.db #0x0f	; 15
	.db #0x00	; 0
	.db #0x00	; 0
	.db #0x38	; 56	'8'
	.db #0x18	; 24
	.db #0x7c	; 124
	.db #0x38	; 56	'8'
	.db #0xf8	; 248
	.db #0xf8	; 248
	.db #0xf8	; 248
	.db #0xf0	; 240
	.db #0xe0	; 224
	.db #0xc0	; 192
	.db #0xc0	; 192
	.db #0xc0	; 192
	.db #0xc0	; 192
	.db #0xc0	; 192
	.db #0x00	; 0
	.db #0x00	; 0
	.db #0x00	; 0
	.db #0x00	; 0
	.db #0x00	; 0
	.db #0x00	; 0
	.db #0x03	; 3
	.db #0x01	; 1
	.db #0x07	; 7
	.db #0x07	; 7
	.db #0x0f	; 15
	.db #0x0f	; 15
	.db #0x0f	; 15
	.db #0x0f	; 15
	.db #0x1f	; 31
	.db #0x0f	; 15
	.db #0x10	; 16
	.db #0x00	; 0
	.db #0x38	; 56	'8'
	.db #0x38	; 56	'8'
	.db #0x78	; 120	'x'
	.db #0x38	; 56	'8'
	.db #0xf8	; 248
	.db #0xf0	; 240
	.db #0xf0	; 240
	.db #0xe0	; 224
	.db #0xe0	; 224
	.db #0xc0	; 192
	.db #0xc0	; 192
	.db #0xc0	; 192
	.db #0xc0	; 192
	.db #0x80	; 128
	.db #0x00	; 0
	.db #0x00	; 0
	.db #0x00	; 0
	.db #0x00	; 0
	.db #0x01	; 1
	.db #0x00	; 0
	.db #0x03	; 3
	.db #0x01	; 1
	.db #0x07	; 7
	.db #0x07	; 7
	.db #0x0f	; 15
	.db #0x0f	; 15
	.db #0x0f	; 15
	.db #0x0f	; 15
	.db #0x1f	; 31
	.db #0x0f	; 15
	.db #0x30	; 48	'0'
	.db #0x00	; 0
	.db #0x38	; 56	'8'
	.db #0x38	; 56	'8'
	.db #0xf8	; 248
	.db #0x78	; 120	'x'
	.db #0xf8	; 248
	.db #0xf0	; 240
	.db #0xf0	; 240
	.db #0xe0	; 224
	.db #0xc0	; 192
	.db #0xc0	; 192
	.db #0xc0	; 192
	.db #0xc0	; 192
	.db #0xc0	; 192
	.db #0x80	; 128
	.db #0x00	; 0
	.db #0x00	; 0
	.db #0x00	; 0
	.db #0x00	; 0
	.db #0x01	; 1
	.db #0x00	; 0
	.db #0x03	; 3
	.db #0x03	; 3
	.db #0x07	; 7
	.db #0x07	; 7
	.db #0x0f	; 15
	.db #0x0f	; 15
	.db #0x0f	; 15
	.db #0x0f	; 15
	.db #0x1f	; 31
	.db #0x0f	; 15
	.db #0x38	; 56	'8'
	.db #0x30	; 48	'0'
	.db #0x78	; 120	'x'
	.db #0x38	; 56	'8'
	.db #0xf8	; 248
	.db #0x70	; 112	'p'
	.db #0xf0	; 240
	.db #0xf0	; 240
	.db #0xe0	; 224
	.db #0x80	; 128
	.db #0xc0	; 192
	.db #0xc0	; 192
	.db #0xc0	; 192
	.db #0xc0	; 192
	.db #0x80	; 128
	.db #0x00	; 0
	.db #0x00	; 0
	.db #0x00	; 0
	.db #0x00	; 0
	.db #0x00	; 0
	.db #0x01	; 1
	.db #0x00	; 0
	.db #0x03	; 3
	.db #0x03	; 3
	.db #0x07	; 7
	.db #0x03	; 3
	.db #0x0f	; 15
	.db #0x0f	; 15
	.db #0x0f	; 15
	.db #0x0f	; 15
	.db #0x1f	; 31
	.db #0x0e	; 14
	.db #0x78	; 120	'x'
	.db #0x30	; 48	'0'
	.db #0x78	; 120	'x'
	.db #0x38	; 56	'8'
	.db #0xf8	; 248
	.db #0xf0	; 240
	.db #0xf0	; 240
	.db #0xe0	; 224
	.db #0xe0	; 224
	.db #0xc0	; 192
	.db #0xc0	; 192
	.db #0xc0	; 192
	.db #0xc0	; 192
	.db #0xc0	; 192
	.db #0x80	; 128
	.db #0x00	; 0
	.db #0x1f	; 31
	.db #0x1f	; 31
	.db #0x3e	; 62
	.db #0x3c	; 60
	.db #0x7c	; 124
	.db #0x78	; 120	'x'
	.db #0x7c	; 124
	.db #0x78	; 120	'x'
	.db #0x7c	; 124
	.db #0x78	; 120	'x'
	.db #0x7c	; 124
	.db #0x7c	; 124
	.db #0xfc	; 252
	.db #0x7c	; 124
	.db #0xfc	; 252
	.db #0x7c	; 124
	.db #0xc0	; 192
	.db #0x00	; 0
	.db #0x00	; 0
	.db #0x00	; 0
	.db #0x00	; 0
	.db #0x00	; 0
	.db #0x00	; 0
	.db #0x00	; 0
	.db #0x00	; 0
	.db #0x00	; 0
	.db #0x00	; 0
	.db #0x00	; 0
	.db #0x00	; 0
	.db #0x00	; 0
	.db #0x00	; 0
	.db #0x00	; 0
	.db #0x1f	; 31
	.db #0x1e	; 30
	.db #0x7e	; 126
	.db #0x3c	; 60
	.db #0x7c	; 124
	.db #0x78	; 120	'x'
	.db #0x7c	; 124
	.db #0x78	; 120	'x'
	.db #0x7c	; 124
	.db #0x38	; 56	'8'
	.db #0x7c	; 124
	.db #0x38	; 56	'8'
	.db #0x7c	; 124
	.db #0x7c	; 124
	.db #0x7c	; 124
	.db #0x7c	; 124
	.db #0x80	; 128
	.db #0x00	; 0
	.db #0x00	; 0
	.db #0x00	; 0
	.db #0x00	; 0
	.db #0x00	; 0
	.db #0x00	; 0
	.db #0x00	; 0
	.db #0x00	; 0
	.db #0x00	; 0
	.db #0x00	; 0
	.db #0x00	; 0
	.db #0x00	; 0
	.db #0x00	; 0
	.db #0x00	; 0
	.db #0x00	; 0
	.db #0x1f	; 31
	.db #0x1e	; 30
	.db #0x7e	; 126
	.db #0x3c	; 60
	.db #0x7c	; 124
	.db #0x38	; 56	'8'
	.db #0x78	; 120	'x'
	.db #0x38	; 56	'8'
	.db #0x78	; 120	'x'
	.db #0x38	; 56	'8'
	.db #0x7c	; 124
	.db #0x38	; 56	'8'
	.db #0x7c	; 124
	.db #0x38	; 56	'8'
	.db #0x3c	; 60
	.db #0x38	; 56	'8'
	.db #0x1e	; 30
	.db #0x1e	; 30
	.db #0x3e	; 62
	.db #0x3c	; 60
	.db #0x7c	; 124
	.db #0x38	; 56	'8'
	.db #0x78	; 120	'x'
	.db #0x38	; 56	'8'
	.db #0x38	; 56	'8'
	.db #0x38	; 56	'8'
	.db #0x3c	; 60
	.db #0x18	; 24
	.db #0x3c	; 60
	.db #0x18	; 24
	.db #0x3c	; 60
	.db #0x18	; 24
	.db #0x1e	; 30
	.db #0x1c	; 28
	.db #0x3e	; 62
	.db #0x3c	; 60
	.db #0x7c	; 124
	.db #0x38	; 56	'8'
	.db #0x7c	; 124
	.db #0x38	; 56	'8'
	.db #0x3c	; 60
	.db #0x3c	; 60
	.db #0x3c	; 60
	.db #0x3c	; 60
	.db #0x3e	; 62
	.db #0x3c	; 60
	.db #0x3e	; 62
	.db #0x3c	; 60
	.db #0x00	; 0
	.db #0x00	; 0
	.db #0x03	; 3
	.db #0x03	; 3
	.db #0x07	; 7
	.db #0x07	; 7
	.db #0x0e	; 14
	.db #0x0c	; 12
	.db #0x7c	; 124
	.db #0x18	; 24
	.db #0x70	; 112	'p'
	.db #0x20	; 32
	.db #0x60	; 96
	.db #0x00	; 0
	.db #0x60	; 96
	.db #0x60	; 96
	.db #0xfe	; 254
	.db #0xfc	; 252
	.db #0xfe	; 254
	.db #0xfc	; 252
	.db #0xfc	; 252
	.db #0x78	; 120	'x'
	.db #0x78	; 120	'x'
	.db #0x30	; 48	'0'
	.db #0x70	; 112	'p'
	.db #0x20	; 32
	.db #0x60	; 96
	.db #0x40	; 64
	.db #0xe0	; 224
	.db #0x40	; 64
	.db #0xf0	; 240
	.db #0xe0	; 224
	.db #0x00	; 0
	.db #0x00	; 0
	.db #0x01	; 1
	.db #0x01	; 1
	.db #0x07	; 7
	.db #0x03	; 3
	.db #0x0f	; 15
	.db #0x06	; 6
	.db #0x3c	; 60
	.db #0x38	; 56	'8'
	.db #0x38	; 56	'8'
	.db #0x30	; 48	'0'
	.db #0x30	; 48	'0'
	.db #0x20	; 32
	.db #0x71	; 113	'q'
	.db #0x20	; 32
	.db #0x7c	; 124
	.db #0x7c	; 124
	.db #0xfc	; 252
	.db #0xf8	; 248
	.db #0xf8	; 248
	.db #0xf8	; 248
	.db #0xf0	; 240
	.db #0x70	; 112	'p'
	.db #0x60	; 96
	.db #0x60	; 96
	.db #0xe0	; 224
	.db #0x40	; 64
	.db #0xc0	; 192
	.db #0xc0	; 192
	.db #0xe0	; 224
	.db #0xc0	; 192
	.db #0x00	; 0
	.db #0x00	; 0
	.db #0x01	; 1
	.db #0x00	; 0
	.db #0x03	; 3
	.db #0x01	; 1
	.db #0x07	; 7
	.db #0x07	; 7
	.db #0x1f	; 31
	.db #0x1c	; 28
	.db #0x18	; 24
	.db #0x18	; 24
	.db #0x31	; 49	'1'
	.db #0x10	; 16
	.db #0x31	; 49	'1'
	.db #0x11	; 17
	.db #0x7c	; 124
	.db #0x38	; 56	'8'
	.db #0xfc	; 252
	.db #0xf8	; 248
	.db #0xf8	; 248
	.db #0xf0	; 240
	.db #0xf0	; 240
	.db #0xe0	; 224
	.db #0xe0	; 224
	.db #0xc0	; 192
	.db #0xc0	; 192
	.db #0x80	; 128
	.db #0xc0	; 192
	.db #0x80	; 128
	.db #0xe0	; 224
	.db #0xc0	; 192
	.db #0x00	; 0
	.db #0x00	; 0
	.db #0x00	; 0
	.db #0x00	; 0
	.db #0x01	; 1
	.db #0x00	; 0
	.db #0x07	; 7
	.db #0x03	; 3
	.db #0x0f	; 15
	.db #0x0f	; 15
	.db #0x0f	; 15
	.db #0x09	; 9
	.db #0x0d	; 13
	.db #0x09	; 9
	.db #0x1f	; 31
	.db #0x09	; 9
	.db #0x3c	; 60
	.db #0x18	; 24
	.db #0xf8	; 248
	.db #0x78	; 120	'x'
	.db #0xf0	; 240
	.db #0xe0	; 224
	.db #0xe0	; 224
	.db #0xc0	; 192
	.db #0xc0	; 192
	.db #0xc0	; 192
	.db #0xc0	; 192
	.db #0x80	; 128
	.db #0x80	; 128
	.db #0x80	; 128
	.db #0xe0	; 224
	.db #0xc0	; 192
	.db #0x00	; 0
	.db #0x00	; 0
	.db #0x00	; 0
	.db #0x00	; 0
	.db #0x00	; 0
	.db #0x00	; 0
	.db #0x07	; 7
	.db #0x01	; 1
	.db #0x07	; 7
	.db #0x03	; 3
	.db #0x07	; 7
	.db #0x03	; 3
	.db #0x07	; 7
	.db #0x03	; 3
	.db #0x07	; 7
	.db #0x03	; 3
	.db #0x3e	; 62
	.db #0x3c	; 60
	.db #0x7c	; 124
	.db #0x3c	; 60
	.db #0xf0	; 240
	.db #0xe0	; 224
	.db #0xe0	; 224
	.db #0xc0	; 192
	.db #0xc0	; 192
	.db #0x80	; 128
	.db #0x80	; 128
	.db #0x00	; 0
	.db #0x80	; 128
	.db #0x00	; 0
	.db #0xc0	; 192
	.db #0x80	; 128
	.db #0x00	; 0
	.db #0x00	; 0
	.db #0x00	; 0
	.db #0x00	; 0
	.db #0x01	; 1
	.db #0x00	; 0
	.db #0x03	; 3
	.db #0x03	; 3
	.db #0x07	; 7
	.db #0x03	; 3
	.db #0x0f	; 15
	.db #0x07	; 7
	.db #0x0f	; 15
	.db #0x0f	; 15
	.db #0x1f	; 31
	.db #0x0e	; 14
	.db #0x78	; 120	'x'
	.db #0x30	; 48	'0'
	.db #0x78	; 120	'x'
	.db #0x70	; 112	'p'
	.db #0xf8	; 248
	.db #0xf0	; 240
	.db #0xf0	; 240
	.db #0xe0	; 224
	.db #0xc0	; 192
	.db #0xc0	; 192
	.db #0xc0	; 192
	.db #0xc0	; 192
	.db #0xc0	; 192
	.db #0x80	; 128
	.db #0x80	; 128
	.db #0x00	; 0
	.db #0x00	; 0
	.db #0x00	; 0
	.db #0x00	; 0
	.db #0x00	; 0
	.db #0x01	; 1
	.db #0x00	; 0
	.db #0x03	; 3
	.db #0x03	; 3
	.db #0x07	; 7
	.db #0x07	; 7
	.db #0x0f	; 15
	.db #0x07	; 7
	.db #0x0f	; 15
	.db #0x0f	; 15
	.db #0x1f	; 31
	.db #0x0e	; 14
	.db #0x70	; 112	'p'
	.db #0x30	; 48	'0'
	.db #0x78	; 120	'x'
	.db #0x70	; 112	'p'
	.db #0xf0	; 240
	.db #0xf0	; 240
	.db #0xf0	; 240
	.db #0xe0	; 224
	.db #0xc0	; 192
	.db #0x80	; 128
	.db #0xc0	; 192
	.db #0xc0	; 192
	.db #0xc0	; 192
	.db #0x80	; 128
	.db #0x80	; 128
	.db #0x00	; 0
	.db #0x00	; 0
	.db #0x00	; 0
	.db #0x00	; 0
	.db #0x00	; 0
	.db #0x01	; 1
	.db #0x00	; 0
	.db #0x03	; 3
	.db #0x03	; 3
	.db #0x07	; 7
	.db #0x03	; 3
	.db #0x0f	; 15
	.db #0x07	; 7
	.db #0x0f	; 15
	.db #0x0f	; 15
	.db #0x1f	; 31
	.db #0x0f	; 15
	.db #0x70	; 112	'p'
	.db #0x30	; 48	'0'
	.db #0x78	; 120	'x'
	.db #0x70	; 112	'p'
	.db #0xf8	; 248
	.db #0xf0	; 240
	.db #0xf0	; 240
	.db #0xe0	; 224
	.db #0xc0	; 192
	.db #0xc0	; 192
	.db #0xc0	; 192
	.db #0xc0	; 192
	.db #0xc0	; 192
	.db #0x80	; 128
	.db #0x80	; 128
	.db #0x00	; 0
	.db #0x00	; 0
	.db #0x00	; 0
	.db #0x00	; 0
	.db #0x00	; 0
	.db #0x01	; 1
	.db #0x00	; 0
	.db #0x03	; 3
	.db #0x03	; 3
	.db #0x07	; 7
	.db #0x03	; 3
	.db #0x0f	; 15
	.db #0x07	; 7
	.db #0x0f	; 15
	.db #0x0f	; 15
	.db #0x0f	; 15
	.db #0x0f	; 15
	.db #0x70	; 112	'p'
	.db #0x30	; 48	'0'
	.db #0x78	; 120	'x'
	.db #0x70	; 112	'p'
	.db #0xf8	; 248
	.db #0xf0	; 240
	.db #0xf0	; 240
	.db #0xe0	; 224
	.db #0xe0	; 224
	.db #0xc0	; 192
	.db #0xc0	; 192
	.db #0xc0	; 192
	.db #0xc0	; 192
	.db #0x80	; 128
	.db #0xc0	; 192
	.db #0x80	; 128
	.db #0x00	; 0
	.db #0x00	; 0
	.db #0x00	; 0
	.db #0x00	; 0
	.db #0x00	; 0
	.db #0x00	; 0
	.db #0x03	; 3
	.db #0x01	; 1
	.db #0x07	; 7
	.db #0x03	; 3
	.db #0x07	; 7
	.db #0x07	; 7
	.db #0x0f	; 15
	.db #0x0f	; 15
	.db #0x0f	; 15
	.db #0x0f	; 15
	.db #0x30	; 48	'0'
	.db #0x30	; 48	'0'
	.db #0x78	; 120	'x'
	.db #0x38	; 56	'8'
	.db #0xf8	; 248
	.db #0x70	; 112	'p'
	.db #0xf0	; 240
	.db #0xf0	; 240
	.db #0xe0	; 224
	.db #0xc0	; 192
	.db #0xc0	; 192
	.db #0xc0	; 192
	.db #0xc0	; 192
	.db #0xc0	; 192
	.db #0xc0	; 192
	.db #0x80	; 128
	.db #0x1e	; 30
	.db #0x1c	; 28
	.db #0x3e	; 62
	.db #0x3c	; 60
	.db #0x7c	; 124
	.db #0x38	; 56	'8'
	.db #0x7c	; 124
	.db #0x3c	; 60
	.db #0x3c	; 60
	.db #0x3c	; 60
	.db #0x3e	; 62
	.db #0x3e	; 62
	.db #0x3e	; 62
	.db #0x3e	; 62
	.db #0x3e	; 62
	.db #0x3e	; 62
	.db #0x1e	; 30
	.db #0x1c	; 28
	.db #0x3e	; 62
	.db #0x3c	; 60
	.db #0x7c	; 124
	.db #0x3c	; 60
	.db #0x7c	; 124
	.db #0x3c	; 60
	.db #0x7e	; 126
	.db #0x3c	; 60
	.db #0x7e	; 126
	.db #0x3e	; 62
	.db #0x7f	; 127
	.db #0x3e	; 62
	.db #0x7f	; 127
	.db #0x3f	; 63
	.db #0x1e	; 30
	.db #0x1e	; 30
	.db #0x3e	; 62
	.db #0x3c	; 60
	.db #0x7c	; 124
	.db #0x3c	; 60
	.db #0x7e	; 126
	.db #0x3e	; 62
	.db #0x7f	; 127
	.db #0x3e	; 62
	.db #0x7f	; 127
	.db #0x3f	; 63
	.db #0x7f	; 127
	.db #0x37	; 55	'7'
	.db #0x7f	; 127
	.db #0x73	; 115	's'
	.db #0x00	; 0
	.db #0x00	; 0
	.db #0x00	; 0
	.db #0x00	; 0
	.db #0x00	; 0
	.db #0x00	; 0
	.db #0x00	; 0
	.db #0x00	; 0
	.db #0x00	; 0
	.db #0x00	; 0
	.db #0x00	; 0
	.db #0x00	; 0
	.db #0x80	; 128
	.db #0x80	; 128
	.db #0x80	; 128
	.db #0x80	; 128
	.db #0x1e	; 30
	.db #0x1e	; 30
	.db #0x3e	; 62
	.db #0x3c	; 60
	.db #0x7e	; 126
	.db #0x3c	; 60
	.db #0x7e	; 126
	.db #0x3e	; 62
	.db #0x7f	; 127
	.db #0x3f	; 63
	.db #0x7f	; 127
	.db #0x3f	; 63
	.db #0x73	; 115	's'
	.db #0x73	; 115	's'
	.db #0x73	; 115	's'
	.db #0x73	; 115	's'
	.db #0x00	; 0
	.db #0x00	; 0
	.db #0x00	; 0
	.db #0x00	; 0
	.db #0x00	; 0
	.db #0x00	; 0
	.db #0x00	; 0
	.db #0x00	; 0
	.db #0x00	; 0
	.db #0x00	; 0
	.db #0x80	; 128
	.db #0x80	; 128
	.db #0xc0	; 192
	.db #0x80	; 128
	.db #0xc0	; 192
	.db #0x80	; 128
	.db #0x1f	; 31
	.db #0x0e	; 14
	.db #0x3e	; 62
	.db #0x1c	; 28
	.db #0x3e	; 62
	.db #0x3c	; 60
	.db #0x7f	; 127
	.db #0x3e	; 62
	.db #0x7f	; 127
	.db #0x3f	; 63
	.db #0x7f	; 127
	.db #0x37	; 55	'7'
	.db #0x73	; 115	's'
	.db #0x71	; 113	'q'
	.db #0x73	; 115	's'
	.db #0x61	; 97	'a'
	.db #0x00	; 0
	.db #0x00	; 0
	.db #0x00	; 0
	.db #0x00	; 0
	.db #0x00	; 0
	.db #0x00	; 0
	.db #0x00	; 0
	.db #0x00	; 0
	.db #0x80	; 128
	.db #0x00	; 0
	.db #0xc0	; 192
	.db #0x80	; 128
	.db #0xc0	; 192
	.db #0xc0	; 192
	.db #0xc0	; 192
	.db #0x80	; 128
	.db #0x00	; 0
	.db #0x00	; 0
	.db #0x00	; 0
	.db #0x00	; 0
	.db #0x00	; 0
	.db #0x00	; 0
	.db #0x03	; 3
	.db #0x01	; 1
	.db #0x03	; 3
	.db #0x01	; 1
	.db #0x03	; 3
	.db #0x01	; 1
	.db #0x03	; 3
	.db #0x01	; 1
	.db #0x03	; 3
	.db #0x03	; 3
	.db #0x7f	; 127
	.db #0x3e	; 62
	.db #0x7e	; 126
	.db #0x7c	; 124
	.db #0xf0	; 240
	.db #0x60	; 96
	.db #0xc0	; 192
	.db #0xc0	; 192
	.db #0xc0	; 192
	.db #0x80	; 128
	.db #0x80	; 128
	.db #0x00	; 0
	.db #0x80	; 128
	.db #0x00	; 0
	.db #0xc0	; 192
	.db #0x80	; 128
	.db #0x00	; 0
	.db #0x00	; 0
	.db #0x00	; 0
	.db #0x00	; 0
	.db #0x00	; 0
	.db #0x00	; 0
	.db #0x01	; 1
	.db #0x01	; 1
	.db #0x01	; 1
	.db #0x01	; 1
	.db #0x03	; 3
	.db #0x01	; 1
	.db #0x03	; 3
	.db #0x03	; 3
	.db #0x07	; 7
	.db #0x03	; 3
	.db #0x7f	; 127
	.db #0x3e	; 62
	.db #0xfe	; 254
	.db #0x78	; 120	'x'
	.db #0xf8	; 248
	.db #0xe0	; 224
	.db #0xe0	; 224
	.db #0x80	; 128
	.db #0xc0	; 192
	.db #0x80	; 128
	.db #0x80	; 128
	.db #0x00	; 0
	.db #0x80	; 128
	.db #0x00	; 0
	.db #0xc0	; 192
	.db #0x80	; 128
	.db #0x00	; 0
	.db #0x00	; 0
	.db #0x00	; 0
	.db #0x00	; 0
	.db #0x01	; 1
	.db #0x00	; 0
	.db #0x01	; 1
	.db #0x01	; 1
	.db #0x03	; 3
	.db #0x01	; 1
	.db #0x03	; 3
	.db #0x02	; 2
	.db #0x07	; 7
	.db #0x02	; 2
	.db #0x07	; 7
	.db #0x03	; 3
	.db #0x7f	; 127
	.db #0x7f	; 127
	.db #0xfe	; 254
	.db #0x7c	; 124
	.db #0xf8	; 248
	.db #0xf0	; 240
	.db #0xe0	; 224
	.db #0xe0	; 224
	.db #0xe0	; 224
	.db #0xc0	; 192
	.db #0xe0	; 224
	.db #0x40	; 64
	.db #0x60	; 96
	.db #0x00	; 0
	.db #0xe0	; 224
	.db #0x40	; 64
	.db #0x00	; 0
	.db #0x00	; 0
	.db #0x00	; 0
	.db #0x00	; 0
	.db #0x01	; 1
	.db #0x01	; 1
	.db #0x03	; 3
	.db #0x01	; 1
	.db #0x03	; 3
	.db #0x03	; 3
	.db #0x07	; 7
	.db #0x02	; 2
	.db #0x06	; 6
	.db #0x06	; 6
	.db #0x07	; 7
	.db #0x07	; 7
	.db #0xff	; 255
	.db #0x77	; 119	'w'
	.db #0xfe	; 254
	.db #0xfc	; 252
	.db #0xfc	; 252
	.db #0xf8	; 248
	.db #0xf0	; 240
	.db #0xf0	; 240
	.db #0xf0	; 240
	.db #0x30	; 48	'0'
	.db #0x30	; 48	'0'
	.db #0x10	; 16
	.db #0x10	; 16
	.db #0x10	; 16
	.db #0x90	; 144
	.db #0x00	; 0
	.db #0x00	; 0
	.db #0x00	; 0
	.db #0x01	; 1
	.db #0x00	; 0
	.db #0x01	; 1
	.db #0x01	; 1
	.db #0x03	; 3
	.db #0x01	; 1
	.db #0x03	; 3
	.db #0x02	; 2
	.db #0x06	; 6
	.db #0x02	; 2
	.db #0x06	; 6
	.db #0x04	; 4
	.db #0x0f	; 15
	.db #0x06	; 6
	.db #0xe3	; 227
	.db #0x63	; 99	'c'
	.db #0xe7	; 231
	.db #0xc2	; 194
	.db #0xc6	; 198
	.db #0x84	; 132
	.db #0x8c	; 140
	.db #0x00	; 0
	.db #0x1c	; 28
	.db #0x18	; 24
	.db #0x1c	; 28
	.db #0x08	; 8
	.db #0x0c	; 12
	.db #0x04	; 4
	.db #0x0e	; 14
	.db #0x04	; 4
	.db #0x00	; 0
	.db #0x00	; 0
	.db #0x00	; 0
	.db #0x00	; 0
	.db #0x00	; 0
	.db #0x00	; 0
	.db #0x03	; 3
	.db #0x01	; 1
	.db #0x07	; 7
	.db #0x03	; 3
	.db #0x0f	; 15
	.db #0x07	; 7
	.db #0x1f	; 31
	.db #0x0f	; 15
	.db #0x1f	; 31
	.db #0x0f	; 15
	.db #0x30	; 48	'0'
	.db #0x20	; 32
	.db #0x78	; 120	'x'
	.db #0x30	; 48	'0'
	.db #0xf8	; 248
	.db #0x70	; 112	'p'
	.db #0xf0	; 240
	.db #0xf0	; 240
	.db #0xe0	; 224
	.db #0xc0	; 192
	.db #0xc0	; 192
	.db #0xc0	; 192
	.db #0xc0	; 192
	.db #0x80	; 128
	.db #0xc0	; 192
	.db #0x80	; 128
	.db #0x30	; 48	'0'
	.db #0x00	; 0
	.db #0x78	; 120	'x'
	.db #0x30	; 48	'0'
	.db #0x78	; 120	'x'
	.db #0x70	; 112	'p'
	.db #0xf0	; 240
	.db #0xf0	; 240
	.db #0xf0	; 240
	.db #0xe0	; 224
	.db #0xc0	; 192
	.db #0x80	; 128
	.db #0xc0	; 192
	.db #0xc0	; 192
	.db #0xc0	; 192
	.db #0x80	; 128
	.db #0x00	; 0
	.db #0x00	; 0
	.db #0x00	; 0
	.db #0x00	; 0
	.db #0x00	; 0
	.db #0x00	; 0
	.db #0x03	; 3
	.db #0x01	; 1
	.db #0x07	; 7
	.db #0x03	; 3
	.db #0x0f	; 15
	.db #0x0f	; 15
	.db #0x1f	; 31
	.db #0x0f	; 15
	.db #0x1f	; 31
	.db #0x0f	; 15
	.db #0x20	; 32
	.db #0x00	; 0
	.db #0x78	; 120	'x'
	.db #0x30	; 48	'0'
	.db #0x78	; 120	'x'
	.db #0x70	; 112	'p'
	.db #0xf0	; 240
	.db #0xf0	; 240
	.db #0xf0	; 240
	.db #0xe0	; 224
	.db #0xc0	; 192
	.db #0x80	; 128
	.db #0xc0	; 192
	.db #0x80	; 128
	.db #0xc0	; 192
	.db #0x80	; 128
	.db #0x00	; 0
	.db #0x00	; 0
	.db #0x78	; 120	'x'
	.db #0x30	; 48	'0'
	.db #0x78	; 120	'x'
	.db #0x70	; 112	'p'
	.db #0xf8	; 248
	.db #0xf0	; 240
	.db #0xf0	; 240
	.db #0xe0	; 224
	.db #0xc0	; 192
	.db #0x80	; 128
	.db #0xc0	; 192
	.db #0xc0	; 192
	.db #0xc0	; 192
	.db #0x80	; 128
	.db #0x1f	; 31
	.db #0x0e	; 14
	.db #0x3e	; 62
	.db #0x1c	; 28
	.db #0x3e	; 62
	.db #0x3c	; 60
	.db #0x7e	; 126
	.db #0x3e	; 62
	.db #0x7f	; 127
	.db #0x3f	; 63
	.db #0x7f	; 127
	.db #0x77	; 119	'w'
	.db #0x73	; 115	's'
	.db #0x61	; 97	'a'
	.db #0xf1	; 241
	.db #0x61	; 97	'a'
	.db #0x00	; 0
	.db #0x00	; 0
	.db #0x00	; 0
	.db #0x00	; 0
	.db #0x00	; 0
	.db #0x00	; 0
	.db #0x00	; 0
	.db #0x00	; 0
	.db #0x80	; 128
	.db #0x00	; 0
	.db #0x80	; 128
	.db #0x80	; 128
	.db #0xc0	; 192
	.db #0xc0	; 192
	.db #0xc0	; 192
	.db #0x80	; 128
	.db #0x1f	; 31
	.db #0x0e	; 14
	.db #0x3e	; 62
	.db #0x1c	; 28
	.db #0x7c	; 124
	.db #0x3c	; 60
	.db #0x7e	; 126
	.db #0x3c	; 60
	.db #0x7f	; 127
	.db #0x3f	; 63
	.db #0x7f	; 127
	.db #0x7f	; 127
	.db #0xf7	; 247
	.db #0x63	; 99	'c'
	.db #0xe3	; 227
	.db #0xe1	; 225
	.db #0x00	; 0
	.db #0x00	; 0
	.db #0x00	; 0
	.db #0x00	; 0
	.db #0x00	; 0
	.db #0x00	; 0
	.db #0x00	; 0
	.db #0x00	; 0
	.db #0x00	; 0
	.db #0x00	; 0
	.db #0x80	; 128
	.db #0x00	; 0
	.db #0x80	; 128
	.db #0x80	; 128
	.db #0xc0	; 192
	.db #0x80	; 128
	.db #0x1f	; 31
	.db #0x1e	; 30
	.db #0x3e	; 62
	.db #0x1c	; 28
	.db #0x7c	; 124
	.db #0x3c	; 60
	.db #0x7e	; 126
	.db #0x3c	; 60
	.db #0x7f	; 127
	.db #0x7e	; 126
	.db #0x7f	; 127
	.db #0x7f	; 127
	.db #0xf7	; 247
	.db #0x67	; 103	'g'
	.db #0xe3	; 227
	.db #0xc1	; 193
	.db #0x1f	; 31
	.db #0x1e	; 30
	.db #0x3e	; 62
	.db #0x1c	; 28
	.db #0x7c	; 124
	.db #0x38	; 56	'8'
	.db #0x7c	; 124
	.db #0x3c	; 60
	.db #0x7e	; 126
	.db #0x7e	; 126
	.db #0xff	; 255
	.db #0x7f	; 127
	.db #0xff	; 255
	.db #0xe7	; 231
	.db #0xe7	; 231
	.db #0xc3	; 195
	.db #0x00	; 0
	.db #0x00	; 0
	.db #0x00	; 0
	.db #0x00	; 0
	.db #0x00	; 0
	.db #0x00	; 0
	.db #0x00	; 0
	.db #0x00	; 0
	.db #0x00	; 0
	.db #0x00	; 0
	.db #0x00	; 0
	.db #0x00	; 0
	.db #0x80	; 128
	.db #0x00	; 0
	.db #0x80	; 128
	.db #0x80	; 128
	.db #0x1f	; 31
	.db #0x0e	; 14
	.db #0x3e	; 62
	.db #0x1c	; 28
	.db #0x7c	; 124
	.db #0x3c	; 60
	.db #0x7c	; 124
	.db #0x3c	; 60
	.db #0x7e	; 126
	.db #0x7c	; 124
	.db #0xff	; 255
	.db #0x7e	; 126
	.db #0xff	; 255
	.db #0xef	; 239
	.db #0xe7	; 231
	.db #0xc7	; 199
	.db #0x80	; 128
	.db #0x00	; 0
	.db #0x00	; 0
	.db #0x00	; 0
	.db #0x00	; 0
	.db #0x00	; 0
	.db #0x00	; 0
	.db #0x00	; 0
	.db #0x00	; 0
	.db #0x00	; 0
	.db #0x00	; 0
	.db #0x00	; 0
	.db #0x00	; 0
	.db #0x00	; 0
	.db #0x80	; 128
	.db #0x00	; 0
	.db #0x00	; 0
	.db #0x00	; 0
	.db #0x01	; 1
	.db #0x00	; 0
	.db #0x03	; 3
	.db #0x01	; 1
	.db #0x03	; 3
	.db #0x03	; 3
	.db #0x07	; 7
	.db #0x02	; 2
	.db #0x06	; 6
	.db #0x04	; 4
	.db #0x0e	; 14
	.db #0x04	; 4
	.db #0x0f	; 15
	.db #0x0e	; 14
	.db #0xe3	; 227
	.db #0x41	; 65	'A'
	.db #0xc3	; 195
	.db #0xc3	; 195
	.db #0x87	; 135
	.db #0x82	; 130
	.db #0x86	; 134
	.db #0x00	; 0
	.db #0x06	; 6
	.db #0x04	; 4
	.db #0x0e	; 14
	.db #0x0c	; 12
	.db #0x0e	; 14
	.db #0x06	; 6
	.db #0x07	; 7
	.db #0x06	; 6
	.db #0x00	; 0
	.db #0x00	; 0
	.db #0x01	; 1
	.db #0x01	; 1
	.db #0x03	; 3
	.db #0x03	; 3
	.db #0x07	; 7
	.db #0x02	; 2
	.db #0x06	; 6
	.db #0x06	; 6
	.db #0x0e	; 14
	.db #0x04	; 4
	.db #0x0c	; 12
	.db #0x0c	; 12
	.db #0x1e	; 30
	.db #0x0c	; 12
	.db #0xe3	; 227
	.db #0xc1	; 193
	.db #0xc3	; 195
	.db #0x83	; 131
	.db #0x87	; 135
	.db #0x02	; 2
	.db #0x06	; 6
	.db #0x02	; 2
	.db #0x06	; 6
	.db #0x00	; 0
	.db #0x06	; 6
	.db #0x04	; 4
	.db #0x0e	; 14
	.db #0x06	; 6
	.db #0x0f	; 15
	.db #0x07	; 7
	.db #0x01	; 1
	.db #0x00	; 0
	.db #0x01	; 1
	.db #0x01	; 1
	.db #0x03	; 3
	.db #0x03	; 3
	.db #0x07	; 7
	.db #0x02	; 2
	.db #0x06	; 6
	.db #0x04	; 4
	.db #0x0c	; 12
	.db #0x00	; 0
	.db #0x1c	; 28
	.db #0x08	; 8
	.db #0x1e	; 30
	.db #0x0c	; 12
	.db #0xe3	; 227
	.db #0xc1	; 193
	.db #0xc3	; 195
	.db #0x83	; 131
	.db #0x87	; 135
	.db #0x02	; 2
	.db #0x06	; 6
	.db #0x02	; 2
	.db #0x06	; 6
	.db #0x04	; 4
	.db #0x06	; 6
	.db #0x04	; 4
	.db #0x0e	; 14
	.db #0x0c	; 12
	.db #0x0f	; 15
	.db #0x0e	; 14
	.db #0x01	; 1
	.db #0x00	; 0
	.db #0x03	; 3
	.db #0x01	; 1
	.db #0x07	; 7
	.db #0x03	; 3
	.db #0x07	; 7
	.db #0x06	; 6
	.db #0x0e	; 14
	.db #0x04	; 4
	.db #0x0c	; 12
	.db #0x08	; 8
	.db #0x1c	; 28
	.db #0x08	; 8
	.db #0x1e	; 30
	.db #0x1c	; 28
	.db #0xc3	; 195
	.db #0xc3	; 195
	.db #0xc7	; 199
	.db #0x82	; 130
	.db #0x87	; 135
	.db #0x06	; 6
	.db #0x06	; 6
	.db #0x04	; 4
	.db #0x0c	; 12
	.db #0x04	; 4
	.db #0x0c	; 12
	.db #0x00	; 0
	.db #0x1c	; 28
	.db #0x0c	; 12
	.db #0x1e	; 30
	.db #0x0c	; 12
	.db #0x01	; 1
	.db #0x01	; 1
	.db #0x03	; 3
	.db #0x03	; 3
	.db #0x07	; 7
	.db #0x06	; 6
	.db #0x0e	; 14
	.db #0x04	; 4
	.db #0x0c	; 12
	.db #0x0c	; 12
	.db #0x1c	; 28
	.db #0x08	; 8
	.db #0x18	; 24
	.db #0x10	; 16
	.db #0x3c	; 60
	.db #0x18	; 24
	.db #0xc3	; 195
	.db #0x83	; 131
	.db #0x87	; 135
	.db #0x82	; 130
	.db #0x07	; 7
	.db #0x06	; 6
	.db #0x0e	; 14
	.db #0x04	; 4
	.db #0x0c	; 12
	.db #0x08	; 8
	.db #0x1c	; 28
	.db #0x08	; 8
	.db #0x18	; 24
	.db #0x08	; 8
	.db #0x1e	; 30
	.db #0x1c	; 28
_TILESETWALKER_51_75:
	.db #0x00	; 0
	.db #0x00	; 0
	.db #0x00	; 0
	.db #0x00	; 0
	.db #0x00	; 0
	.db #0x00	; 0
	.db #0x00	; 0
	.db #0x00	; 0
	.db #0x00	; 0
	.db #0x00	; 0
	.db #0x00	; 0
	.db #0x00	; 0
	.db #0x00	; 0
	.db #0x00	; 0
	.db #0x00	; 0
	.db #0x00	; 0
	.db #0x00	; 0
	.db #0x00	; 0
	.db #0x00	; 0
	.db #0x00	; 0
	.db #0x00	; 0
	.db #0x00	; 0
	.db #0x01	; 1
	.db #0x00	; 0
	.db #0x07	; 7
	.db #0x03	; 3
	.db #0x0f	; 15
	.db #0x07	; 7
	.db #0x1f	; 31
	.db #0x0f	; 15
	.db #0x1f	; 31
	.db #0x0f	; 15
	.db #0x00	; 0
	.db #0x00	; 0
	.db #0x38	; 56	'8'
	.db #0x30	; 48	'0'
	.db #0x78	; 120	'x'
	.db #0x38	; 56	'8'
	.db #0xf8	; 248
	.db #0x70	; 112	'p'
	.db #0xf0	; 240
	.db #0xf0	; 240
	.db #0xe0	; 224
	.db #0xc0	; 192
	.db #0xc0	; 192
	.db #0xc0	; 192
	.db #0xc0	; 192
	.db #0xc0	; 192
	.db #0x00	; 0
	.db #0x00	; 0
	.db #0x00	; 0
	.db #0x00	; 0
	.db #0x00	; 0
	.db #0x00	; 0
	.db #0x01	; 1
	.db #0x00	; 0
	.db #0x03	; 3
	.db #0x03	; 3
	.db #0x07	; 7
	.db #0x07	; 7
	.db #0x0f	; 15
	.db #0x0f	; 15
	.db #0x0f	; 15
	.db #0x0f	; 15
	.db #0x00	; 0
	.db #0x00	; 0
	.db #0x38	; 56	'8'
	.db #0x00	; 0
	.db #0x38	; 56	'8'
	.db #0x38	; 56	'8'
	.db #0xf8	; 248
	.db #0x78	; 120	'x'
	.db #0xf8	; 248
	.db #0xf0	; 240
	.db #0xf0	; 240
	.db #0xe0	; 224
	.db #0xc0	; 192
	.db #0xc0	; 192
	.db #0xc0	; 192
	.db #0xc0	; 192
	.db #0x00	; 0
	.db #0x00	; 0
	.db #0x00	; 0
	.db #0x00	; 0
	.db #0x00	; 0
	.db #0x00	; 0
	.db #0x00	; 0
	.db #0x00	; 0
	.db #0x03	; 3
	.db #0x01	; 1
	.db #0x07	; 7
	.db #0x07	; 7
	.db #0x0f	; 15
	.db #0x0f	; 15
	.db #0x0f	; 15
	.db #0x0f	; 15
	.db #0x00	; 0
	.db #0x00	; 0
	.db #0x10	; 16
	.db #0x00	; 0
	.db #0x38	; 56	'8'
	.db #0x38	; 56	'8'
	.db #0x7c	; 124
	.db #0x38	; 56	'8'
	.db #0xf8	; 248
	.db #0xf0	; 240
	.db #0xf0	; 240
	.db #0xe0	; 224
	.db #0xc0	; 192
	.db #0xc0	; 192
	.db #0xc0	; 192
	.db #0xc0	; 192
	.db #0x00	; 0
	.db #0x00	; 0
	.db #0x18	; 24
	.db #0x00	; 0
	.db #0x38	; 56	'8'
	.db #0x38	; 56	'8'
	.db #0x7c	; 124
	.db #0x38	; 56	'8'
	.db #0xf8	; 248
	.db #0xf0	; 240
	.db #0xf0	; 240
	.db #0xe0	; 224
	.db #0xe0	; 224
	.db #0xc0	; 192
	.db #0xc0	; 192
	.db #0xc0	; 192
	.db #0x00	; 0
	.db #0x00	; 0
	.db #0x18	; 24
	.db #0x00	; 0
	.db #0x38	; 56	'8'
	.db #0x18	; 24
	.db #0x7c	; 124
	.db #0x38	; 56	'8'
	.db #0xf8	; 248
	.db #0xf8	; 248
	.db #0xf0	; 240
	.db #0xf0	; 240
	.db #0xe0	; 224
	.db #0xc0	; 192
	.db #0xe0	; 224
	.db #0xc0	; 192
	.db #0x00	; 0
	.db #0x00	; 0
	.db #0x00	; 0
	.db #0x00	; 0
	.db #0x00	; 0
	.db #0x00	; 0
	.db #0x00	; 0
	.db #0x00	; 0
	.db #0x00	; 0
	.db #0x00	; 0
	.db #0x00	; 0
	.db #0x00	; 0
	.db #0x00	; 0
	.db #0x00	; 0
	.db #0x01	; 1
	.db #0x00	; 0
	.db #0x1f	; 31
	.db #0x0f	; 15
	.db #0x3e	; 62
	.db #0x1c	; 28
	.db #0x3c	; 60
	.db #0x3c	; 60
	.db #0x7c	; 124
	.db #0x3c	; 60
	.db #0x7e	; 126
	.db #0x7c	; 124
	.db #0xfe	; 254
	.db #0x7e	; 126
	.db #0xff	; 255
	.db #0xef	; 239
	.db #0xe7	; 231
	.db #0xc7	; 199
	.db #0xc0	; 192
	.db #0x00	; 0
	.db #0x00	; 0
	.db #0x00	; 0
	.db #0x00	; 0
	.db #0x00	; 0
	.db #0x00	; 0
	.db #0x00	; 0
	.db #0x00	; 0
	.db #0x00	; 0
	.db #0x00	; 0
	.db #0x00	; 0
	.db #0x00	; 0
	.db #0x00	; 0
	.db #0x80	; 128
	.db #0x00	; 0
	.db #0x1f	; 31
	.db #0x0f	; 15
	.db #0x1f	; 31
	.db #0x1e	; 30
	.db #0x3e	; 62
	.db #0x3c	; 60
	.db #0x7c	; 124
	.db #0x3c	; 60
	.db #0x7c	; 124
	.db #0x3c	; 60
	.db #0x7e	; 126
	.db #0x7e	; 126
	.db #0xff	; 255
	.db #0x7e	; 126
	.db #0xef	; 239
	.db #0xc7	; 199
	.db #0xc0	; 192
	.db #0xc0	; 192
	.db #0x00	; 0
	.db #0x00	; 0
	.db #0x00	; 0
	.db #0x00	; 0
	.db #0x00	; 0
	.db #0x00	; 0
	.db #0x00	; 0
	.db #0x00	; 0
	.db #0x00	; 0
	.db #0x00	; 0
	.db #0x00	; 0
	.db #0x00	; 0
	.db #0x00	; 0
	.db #0x00	; 0
	.db #0x1f	; 31
	.db #0x0f	; 15
	.db #0x1f	; 31
	.db #0x1e	; 30
	.db #0x3e	; 62
	.db #0x3c	; 60
	.db #0x7c	; 124
	.db #0x38	; 56	'8'
	.db #0x7c	; 124
	.db #0x3c	; 60
	.db #0x7e	; 126
	.db #0x7c	; 124
	.db #0xfe	; 254
	.db #0x7e	; 126
	.db #0xff	; 255
	.db #0xce	; 206
	.db #0xc0	; 192
	.db #0xc0	; 192
	.db #0x80	; 128
	.db #0x00	; 0
	.db #0x00	; 0
	.db #0x00	; 0
	.db #0x00	; 0
	.db #0x00	; 0
	.db #0x00	; 0
	.db #0x00	; 0
	.db #0x00	; 0
	.db #0x00	; 0
	.db #0x00	; 0
	.db #0x00	; 0
	.db #0x00	; 0
	.db #0x00	; 0
	.db #0x1f	; 31
	.db #0x0f	; 15
	.db #0x1f	; 31
	.db #0x1e	; 30
	.db #0x3e	; 62
	.db #0x3c	; 60
	.db #0x7c	; 124
	.db #0x38	; 56	'8'
	.db #0x7c	; 124
	.db #0x38	; 56	'8'
	.db #0x7c	; 124
	.db #0x7c	; 124
	.db #0xfe	; 254
	.db #0x7e	; 126
	.db #0xfe	; 254
	.db #0xce	; 206
	.db #0xe0	; 224
	.db #0xc0	; 192
	.db #0x80	; 128
	.db #0x00	; 0
	.db #0x00	; 0
	.db #0x00	; 0
	.db #0x00	; 0
	.db #0x00	; 0
	.db #0x00	; 0
	.db #0x00	; 0
	.db #0x00	; 0
	.db #0x00	; 0
	.db #0x00	; 0
	.db #0x00	; 0
	.db #0x00	; 0
	.db #0x00	; 0
	.db #0x1f	; 31
	.db #0x0f	; 15
	.db #0x3f	; 63
	.db #0x1e	; 30
	.db #0x7e	; 126
	.db #0x3c	; 60
	.db #0x7c	; 124
	.db #0x38	; 56	'8'
	.db #0x7c	; 124
	.db #0x38	; 56	'8'
	.db #0x7c	; 124
	.db #0x7c	; 124
	.db #0xfe	; 254
	.db #0x7c	; 124
	.db #0xfe	; 254
	.db #0xfe	; 254
	.db #0xe0	; 224
	.db #0xc0	; 192
	.db #0xc0	; 192
	.db #0x00	; 0
	.db #0x00	; 0
	.db #0x00	; 0
	.db #0x00	; 0
	.db #0x00	; 0
	.db #0x00	; 0
	.db #0x00	; 0
	.db #0x00	; 0
	.db #0x00	; 0
	.db #0x00	; 0
	.db #0x00	; 0
	.db #0x00	; 0
	.db #0x00	; 0
	.db #0x01	; 1
	.db #0x01	; 1
	.db #0x03	; 3
	.db #0x03	; 3
	.db #0x07	; 7
	.db #0x06	; 6
	.db #0x0e	; 14
	.db #0x04	; 4
	.db #0x1c	; 28
	.db #0x08	; 8
	.db #0x18	; 24
	.db #0x10	; 16
	.db #0x38	; 56	'8'
	.db #0x10	; 16
	.db #0x3c	; 60
	.db #0x38	; 56	'8'
	.db #0xc7	; 199
	.db #0x83	; 131
	.db #0x87	; 135
	.db #0x83	; 131
	.db #0x0e	; 14
	.db #0x06	; 6
	.db #0x0e	; 14
	.db #0x0c	; 12
	.db #0x0c	; 12
	.db #0x08	; 8
	.db #0x18	; 24
	.db #0x00	; 0
	.db #0x18	; 24
	.db #0x18	; 24
	.db #0x3c	; 60
	.db #0x18	; 24
	.db #0x80	; 128
	.db #0x00	; 0
	.db #0x00	; 0
	.db #0x00	; 0
	.db #0x00	; 0
	.db #0x00	; 0
	.db #0x00	; 0
	.db #0x00	; 0
	.db #0x00	; 0
	.db #0x00	; 0
	.db #0x00	; 0
	.db #0x00	; 0
	.db #0x00	; 0
	.db #0x00	; 0
	.db #0x00	; 0
	.db #0x00	; 0
	.db #0x01	; 1
	.db #0x01	; 1
	.db #0x03	; 3
	.db #0x03	; 3
	.db #0x07	; 7
	.db #0x07	; 7
	.db #0x0e	; 14
	.db #0x0c	; 12
	.db #0x1c	; 28
	.db #0x08	; 8
	.db #0x18	; 24
	.db #0x10	; 16
	.db #0x38	; 56	'8'
	.db #0x30	; 48	'0'
	.db #0x7c	; 124
	.db #0x38	; 56	'8'
	.db #0xc7	; 199
	.db #0xc3	; 195
	.db #0xc7	; 199
	.db #0x87	; 135
	.db #0x8f	; 143
	.db #0x06	; 6
	.db #0x0c	; 12
	.db #0x0c	; 12
	.db #0x1c	; 28
	.db #0x08	; 8
	.db #0x18	; 24
	.db #0x10	; 16
	.db #0x38	; 56	'8'
	.db #0x10	; 16
	.db #0x3c	; 60
	.db #0x38	; 56	'8'
	.db #0x01	; 1
	.db #0x01	; 1
	.db #0x03	; 3
	.db #0x03	; 3
	.db #0x0f	; 15
	.db #0x07	; 7
	.db #0x0e	; 14
	.db #0x0c	; 12
	.db #0x1c	; 28
	.db #0x08	; 8
	.db #0x38	; 56	'8'
	.db #0x10	; 16
	.db #0x30	; 48	'0'
	.db #0x30	; 48	'0'
	.db #0x78	; 120	'x'
	.db #0x38	; 56	'8'
	.db #0xc7	; 199
	.db #0xc7	; 199
	.db #0xc7	; 199
	.db #0x86	; 134
	.db #0x8e	; 142
	.db #0x0c	; 12
	.db #0x1c	; 28
	.db #0x08	; 8
	.db #0x18	; 24
	.db #0x18	; 24
	.db #0x38	; 56	'8'
	.db #0x10	; 16
	.db #0x30	; 48	'0'
	.db #0x30	; 48	'0'
	.db #0x78	; 120	'x'
	.db #0x30	; 48	'0'
	.db #0x01	; 1
	.db #0x00	; 0
	.db #0x03	; 3
	.db #0x03	; 3
	.db #0x0f	; 15
	.db #0x07	; 7
	.db #0x0e	; 14
	.db #0x0c	; 12
	.db #0x1c	; 28
	.db #0x18	; 24
	.db #0x30	; 48	'0'
	.db #0x30	; 48	'0'
	.db #0x70	; 112	'p'
	.db #0x30	; 48	'0'
	.db #0x78	; 120	'x'
	.db #0x70	; 112	'p'
	.db #0xcf	; 207
	.db #0xc6	; 198
	.db #0xcf	; 207
	.db #0x86	; 134
	.db #0x9e	; 158
	.db #0x0c	; 12
	.db #0x1c	; 28
	.db #0x18	; 24
	.db #0x38	; 56	'8'
	.db #0x10	; 16
	.db #0x30	; 48	'0'
	.db #0x20	; 32
	.db #0x70	; 112	'p'
	.db #0x20	; 32
	.db #0x78	; 120	'x'
	.db #0x70	; 112	'p'
	.db #0x01	; 1
	.db #0x00	; 0
	.db #0x03	; 3
	.db #0x03	; 3
	.db #0x0f	; 15
	.db #0x07	; 7
	.db #0x0e	; 14
	.db #0x0c	; 12
	.db #0x1c	; 28
	.db #0x18	; 24
	.db #0x30	; 48	'0'
	.db #0x20	; 32
	.db #0x70	; 112	'p'
	.db #0x60	; 96
	.db #0x78	; 120	'x'
	.db #0x70	; 112	'p'
	.db #0xee	; 238
	.db #0xc6	; 198
	.db #0xce	; 206
	.db #0x86	; 134
	.db #0x9e	; 158
	.db #0x0c	; 12
	.db #0x3c	; 60
	.db #0x18	; 24
	.db #0x38	; 56	'8'
	.db #0x30	; 48	'0'
	.db #0x70	; 112	'p'
	.db #0x20	; 32
	.db #0x60	; 96
	.db #0x60	; 96
	.db #0xf8	; 248
	.db #0x70	; 112	'p'
	.db #0x00	; 0
	.db #0x00	; 0
	.db #0x18	; 24
	.db #0x00	; 0
	.db #0x3c	; 60
	.db #0x18	; 24
	.db #0x7c	; 124
	.db #0x38	; 56	'8'
	.db #0xf8	; 248
	.db #0xf8	; 248
	.db #0xf0	; 240
	.db #0xf0	; 240
	.db #0xe0	; 224
	.db #0xc0	; 192
	.db #0xe0	; 224
	.db #0xc0	; 192
	.db #0x00	; 0
	.db #0x00	; 0
	.db #0x18	; 24
	.db #0x00	; 0
	.db #0x3c	; 60
	.db #0x18	; 24
	.db #0xfc	; 252
	.db #0x38	; 56	'8'
	.db #0xf8	; 248
	.db #0xf8	; 248
	.db #0xf8	; 248
	.db #0xf0	; 240
	.db #0xe0	; 224
	.db #0xc0	; 192
	.db #0xe0	; 224
	.db #0xc0	; 192
	.db #0x00	; 0
	.db #0x00	; 0
	.db #0x00	; 0
	.db #0x00	; 0
	.db #0x00	; 0
	.db #0x00	; 0
	.db #0x01	; 1
	.db #0x00	; 0
	.db #0x03	; 3
	.db #0x01	; 1
	.db #0x07	; 7
	.db #0x07	; 7
	.db #0x0f	; 15
	.db #0x0f	; 15
	.db #0x0f	; 15
	.db #0x0f	; 15
	.db #0x00	; 0
	.db #0x00	; 0
	.db #0x18	; 24
	.db #0x10	; 16
	.db #0x3c	; 60
	.db #0x18	; 24
	.db #0xfc	; 252
	.db #0x38	; 56	'8'
	.db #0xf8	; 248
	.db #0xf8	; 248
	.db #0xf0	; 240
	.db #0xe0	; 224
	.db #0xe0	; 224
	.db #0xc0	; 192
	.db #0xe0	; 224
	.db #0xc0	; 192
	.db #0x00	; 0
	.db #0x00	; 0
	.db #0x00	; 0
	.db #0x00	; 0
	.db #0x00	; 0
	.db #0x00	; 0
	.db #0x01	; 1
	.db #0x00	; 0
	.db #0x03	; 3
	.db #0x03	; 3
	.db #0x0f	; 15
	.db #0x07	; 7
	.db #0x0f	; 15
	.db #0x0f	; 15
	.db #0x0f	; 15
	.db #0x0f	; 15
	.db #0x00	; 0
	.db #0x00	; 0
	.db #0x18	; 24
	.db #0x18	; 24
	.db #0x3c	; 60
	.db #0x38	; 56	'8'
	.db #0xfc	; 252
	.db #0xf8	; 248
	.db #0xf8	; 248
	.db #0xf0	; 240
	.db #0xf0	; 240
	.db #0xc0	; 192
	.db #0xe0	; 224
	.db #0xc0	; 192
	.db #0xe0	; 224
	.db #0xc0	; 192
	.db #0x00	; 0
	.db #0x00	; 0
	.db #0x00	; 0
	.db #0x00	; 0
	.db #0x00	; 0
	.db #0x00	; 0
	.db #0x01	; 1
	.db #0x01	; 1
	.db #0x03	; 3
	.db #0x03	; 3
	.db #0x0f	; 15
	.db #0x07	; 7
	.db #0x0f	; 15
	.db #0x0f	; 15
	.db #0x0f	; 15
	.db #0x0f	; 15
	.db #0x00	; 0
	.db #0x00	; 0
	.db #0x3c	; 60
	.db #0x18	; 24
	.db #0x3c	; 60
	.db #0x38	; 56	'8'
	.db #0xfc	; 252
	.db #0xf8	; 248
	.db #0xf8	; 248
	.db #0xf0	; 240
	.db #0xe0	; 224
	.db #0xc0	; 192
	.db #0xe0	; 224
	.db #0xc0	; 192
	.db #0xe0	; 224
	.db #0xc0	; 192
	.db #0x1f	; 31
	.db #0x0f	; 15
	.db #0x3f	; 63
	.db #0x1e	; 30
	.db #0x7e	; 126
	.db #0x3c	; 60
	.db #0x7c	; 124
	.db #0x38	; 56	'8'
	.db #0x7c	; 124
	.db #0x78	; 120	'x'
	.db #0xfc	; 252
	.db #0x7c	; 124
	.db #0xfc	; 252
	.db #0x7c	; 124
	.db #0xfe	; 254
	.db #0xfc	; 252
	.db #0x1f	; 31
	.db #0x0f	; 15
	.db #0x3f	; 63
	.db #0x3c	; 60
	.db #0x7c	; 124
	.db #0x3c	; 60
	.db #0x7c	; 124
	.db #0x78	; 120	'x'
	.db #0x78	; 120	'x'
	.db #0x78	; 120	'x'
	.db #0xfc	; 252
	.db #0x7c	; 124
	.db #0xfc	; 252
	.db #0x7c	; 124
	.db #0xfc	; 252
	.db #0xfc	; 252
	.db #0x1f	; 31
	.db #0x0f	; 15
	.db #0x3e	; 62
	.db #0x3c	; 60
	.db #0x7c	; 124
	.db #0x3c	; 60
	.db #0x7c	; 124
	.db #0x78	; 120	'x'
	.db #0x78	; 120	'x'
	.db #0x38	; 56	'8'
	.db #0x7c	; 124
	.db #0x78	; 120	'x'
	.db #0xfc	; 252
	.db #0x7c	; 124
	.db #0xfc	; 252
	.db #0x7c	; 124
	.db #0x1f	; 31
	.db #0x1f	; 31
	.db #0x3e	; 62
	.db #0x3c	; 60
	.db #0x7c	; 124
	.db #0x3c	; 60
	.db #0x7c	; 124
	.db #0x38	; 56	'8'
	.db #0x78	; 120	'x'
	.db #0x38	; 56	'8'
	.db #0x7c	; 124
	.db #0x38	; 56	'8'
	.db #0x7c	; 124
	.db #0x38	; 56	'8'
	.db #0x7c	; 124
	.db #0x38	; 56	'8'
	.db #0xc0	; 192
	.db #0x00	; 0
	.db #0x00	; 0
	.db #0x00	; 0
	.db #0x00	; 0
	.db #0x00	; 0
	.db #0x00	; 0
	.db #0x00	; 0
	.db #0x00	; 0
	.db #0x00	; 0
	.db #0x00	; 0
	.db #0x00	; 0
	.db #0x00	; 0
	.db #0x00	; 0
	.db #0x00	; 0
	.db #0x00	; 0
	.db #0x01	; 1
	.db #0x00	; 0
	.db #0x03	; 3
	.db #0x03	; 3
	.db #0x0f	; 15
	.db #0x07	; 7
	.db #0x1e	; 30
	.db #0x0c	; 12
	.db #0x38	; 56	'8'
	.db #0x10	; 16
	.db #0x70	; 112	'p'
	.db #0x20	; 32
	.db #0x70	; 112	'p'
	.db #0x60	; 96
	.db #0x70	; 112	'p'
	.db #0x70	; 112	'p'
	.db #0xce	; 206
	.db #0xce	; 206
	.db #0xce	; 206
	.db #0x86	; 134
	.db #0x9e	; 158
	.db #0x1c	; 28
	.db #0x38	; 56	'8'
	.db #0x18	; 24
	.db #0x30	; 48	'0'
	.db #0x30	; 48	'0'
	.db #0x60	; 96
	.db #0x20	; 32
	.db #0x60	; 96
	.db #0x40	; 64
	.db #0xf0	; 240
	.db #0x60	; 96
	.db #0x01	; 1
	.db #0x00	; 0
	.db #0x07	; 7
	.db #0x03	; 3
	.db #0x0f	; 15
	.db #0x06	; 6
	.db #0x1e	; 30
	.db #0x0c	; 12
	.db #0x38	; 56	'8'
	.db #0x10	; 16
	.db #0x70	; 112	'p'
	.db #0x60	; 96
	.db #0x70	; 112	'p'
	.db #0x60	; 96
	.db #0x70	; 112	'p'
	.db #0x20	; 32
	.db #0xfe	; 254
	.db #0xcc	; 204
	.db #0xce	; 206
	.db #0x8c	; 140
	.db #0xbc	; 188
	.db #0x1c	; 28
	.db #0x38	; 56	'8'
	.db #0x30	; 48	'0'
	.db #0x70	; 112	'p'
	.db #0x20	; 32
	.db #0x60	; 96
	.db #0x40	; 64
	.db #0xe0	; 224
	.db #0x40	; 64
	.db #0xf0	; 240
	.db #0xe0	; 224
	.db #0x01	; 1
	.db #0x00	; 0
	.db #0x03	; 3
	.db #0x03	; 3
	.db #0x0f	; 15
	.db #0x07	; 7
	.db #0x1e	; 30
	.db #0x0c	; 12
	.db #0x38	; 56	'8'
	.db #0x10	; 16
	.db #0x70	; 112	'p'
	.db #0x60	; 96
	.db #0x60	; 96
	.db #0x20	; 32
	.db #0x71	; 113	'q'
	.db #0x20	; 32
	.db #0xfc	; 252
	.db #0xcc	; 204
	.db #0xfc	; 252
	.db #0xdc	; 220
	.db #0xfc	; 252
	.db #0xb8	; 184
	.db #0x78	; 120	'x'
	.db #0x30	; 48	'0'
	.db #0x70	; 112	'p'
	.db #0x60	; 96
	.db #0xe0	; 224
	.db #0x40	; 64
	.db #0xc0	; 192
	.db #0xc0	; 192
	.db #0xf0	; 240
	.db #0xe0	; 224
	.db #0x00	; 0
	.db #0x00	; 0
	.db #0x03	; 3
	.db #0x03	; 3
	.db #0x07	; 7
	.db #0x07	; 7
	.db #0x1f	; 31
	.db #0x0c	; 12
	.db #0x7c	; 124
	.db #0x30	; 48	'0'
	.db #0x70	; 112	'p'
	.db #0x20	; 32
	.db #0x31	; 49	'1'
	.db #0x20	; 32
	.db #0x71	; 113	'q'
	.db #0x21	; 33
	.db #0xfc	; 252
	.db #0xfc	; 252
	.db #0xfc	; 252
	.db #0xf8	; 248
	.db #0xf8	; 248
	.db #0xf8	; 248
	.db #0xf0	; 240
	.db #0x60	; 96
	.db #0xe0	; 224
	.db #0x40	; 64
	.db #0xc0	; 192
	.db #0x80	; 128
	.db #0xc0	; 192
	.db #0x80	; 128
	.db #0xe0	; 224
	.db #0xc0	; 192
	.db #0x00	; 0
	.db #0x00	; 0
	.db #0x03	; 3
	.db #0x01	; 1
	.db #0x07	; 7
	.db #0x03	; 3
	.db #0x1f	; 31
	.db #0x0e	; 14
	.db #0x3c	; 60
	.db #0x30	; 48	'0'
	.db #0x31	; 49	'1'
	.db #0x10	; 16
	.db #0x31	; 49	'1'
	.db #0x01	; 1
	.db #0x33	; 51	'3'
	.db #0x11	; 17
	.db #0x7c	; 124
	.db #0x78	; 120	'x'
	.db #0xfc	; 252
	.db #0xf8	; 248
	.db #0xf8	; 248
	.db #0xf0	; 240
	.db #0xf0	; 240
	.db #0xe0	; 224
	.db #0xe0	; 224
	.db #0xc0	; 192
	.db #0xc0	; 192
	.db #0x80	; 128
	.db #0x80	; 128
	.db #0x80	; 128
	.db #0xe0	; 224
	.db #0xc0	; 192
	.db #0x00	; 0
	.db #0x00	; 0
	.db #0x00	; 0
	.db #0x00	; 0
	.db #0x00	; 0
	.db #0x00	; 0
	.db #0x03	; 3
	.db #0x01	; 1
	.db #0x07	; 7
	.db #0x03	; 3
	.db #0x0f	; 15
	.db #0x0f	; 15
	.db #0x0f	; 15
	.db #0x0f	; 15
	.db #0x1f	; 31
	.db #0x0f	; 15
	.db #0x18	; 24
	.db #0x00	; 0
	.db #0x3c	; 60
	.db #0x18	; 24
	.db #0x7c	; 124
	.db #0x38	; 56	'8'
	.db #0xf8	; 248
	.db #0xf8	; 248
	.db #0xf8	; 248
	.db #0xf0	; 240
	.db #0xe0	; 224
	.db #0xc0	; 192
	.db #0xe0	; 224
	.db #0xc0	; 192
	.db #0xe0	; 224
	.db #0xc0	; 192
	.db #0x00	; 0
	.db #0x00	; 0
	.db #0x00	; 0
	.db #0x00	; 0
	.db #0x01	; 1
	.db #0x00	; 0
	.db #0x03	; 3
	.db #0x01	; 1
	.db #0x07	; 7
	.db #0x03	; 3
	.db #0x0f	; 15
	.db #0x0f	; 15
	.db #0x0f	; 15
	.db #0x0f	; 15
	.db #0x1f	; 31
	.db #0x0f	; 15
	.db #0x38	; 56	'8'
	.db #0x10	; 16
	.db #0x3c	; 60
	.db #0x38	; 56	'8'
	.db #0xfc	; 252
	.db #0x38	; 56	'8'
	.db #0xf8	; 248
	.db #0xf0	; 240
	.db #0xf0	; 240
	.db #0xe0	; 224
	.db #0xe0	; 224
	.db #0xc0	; 192
	.db #0xe0	; 224
	.db #0xc0	; 192
	.db #0xc0	; 192
	.db #0xc0	; 192
	.db #0x00	; 0
	.db #0x00	; 0
	.db #0x00	; 0
	.db #0x00	; 0
	.db #0x01	; 1
	.db #0x00	; 0
	.db #0x03	; 3
	.db #0x03	; 3
	.db #0x07	; 7
	.db #0x07	; 7
	.db #0x0f	; 15
	.db #0x0f	; 15
	.db #0x0f	; 15
	.db #0x0f	; 15
	.db #0x1f	; 31
	.db #0x0f	; 15
	.db #0x38	; 56	'8'
	.db #0x18	; 24
	.db #0x3c	; 60
	.db #0x38	; 56	'8'
	.db #0xfc	; 252
	.db #0x78	; 120	'x'
	.db #0xf8	; 248
	.db #0xf0	; 240
	.db #0xf0	; 240
	.db #0xc0	; 192
	.db #0xe0	; 224
	.db #0xc0	; 192
	.db #0xe0	; 224
	.db #0xc0	; 192
	.db #0xc0	; 192
	.db #0x80	; 128
	.db #0x00	; 0
	.db #0x00	; 0
	.db #0x00	; 0
	.db #0x00	; 0
	.db #0x01	; 1
	.db #0x00	; 0
	.db #0x03	; 3
	.db #0x03	; 3
	.db #0x0f	; 15
	.db #0x07	; 7
	.db #0x0f	; 15
	.db #0x0f	; 15
	.db #0x0f	; 15
	.db #0x0f	; 15
	.db #0x1f	; 31
	.db #0x0f	; 15
	.db #0x38	; 56	'8'
	.db #0x18	; 24
	.db #0x7c	; 124
	.db #0x38	; 56	'8'
	.db #0xf8	; 248
	.db #0xf8	; 248
	.db #0xf8	; 248
	.db #0xf0	; 240
	.db #0xe0	; 224
	.db #0xc0	; 192
	.db #0xe0	; 224
	.db #0xc0	; 192
	.db #0xe0	; 224
	.db #0xc0	; 192
	.db #0xc0	; 192
	.db #0x00	; 0
	.db #0x38	; 56	'8'
	.db #0x38	; 56	'8'
	.db #0x78	; 120	'x'
	.db #0x38	; 56	'8'
	.db #0xf8	; 248
	.db #0xf8	; 248
	.db #0xf8	; 248
	.db #0xf0	; 240
	.db #0xe0	; 224
	.db #0xc0	; 192
	.db #0xc0	; 192
	.db #0xc0	; 192
	.db #0xe0	; 224
	.db #0xc0	; 192
	.db #0xc0	; 192
	.db #0x00	; 0
	.db #0x1f	; 31
	.db #0x1e	; 30
	.db #0x3e	; 62
	.db #0x3c	; 60
	.db #0x7c	; 124
	.db #0x38	; 56	'8'
	.db #0x7c	; 124
	.db #0x38	; 56	'8'
	.db #0x78	; 120	'x'
	.db #0x38	; 56	'8'
	.db #0x38	; 56	'8'
	.db #0x38	; 56	'8'
	.db #0x38	; 56	'8'
	.db #0x38	; 56	'8'
	.db #0x38	; 56	'8'
	.db #0x38	; 56	'8'
	.db #0x3f	; 63
	.db #0x1e	; 30
	.db #0x7e	; 126
	.db #0x3c	; 60
	.db #0x7c	; 124
	.db #0x38	; 56	'8'
	.db #0x78	; 120	'x'
	.db #0x38	; 56	'8'
	.db #0x38	; 56	'8'
	.db #0x38	; 56	'8'
	.db #0x38	; 56	'8'
	.db #0x38	; 56	'8'
	.db #0x3c	; 60
	.db #0x38	; 56	'8'
	.db #0x38	; 56	'8'
	.db #0x38	; 56	'8'
	.db #0x3f	; 63
	.db #0x1e	; 30
	.db #0x7e	; 126
	.db #0x3c	; 60
	.db #0x7c	; 124
	.db #0x38	; 56	'8'
	.db #0x7c	; 124
	.db #0x38	; 56	'8'
	.db #0x7c	; 124
	.db #0x3c	; 60
	.db #0x7c	; 124
	.db #0x3c	; 60
	.db #0x7c	; 124
	.db #0x3c	; 60
	.db #0x7e	; 126
	.db #0x3c	; 60
	.db #0x3e	; 62
	.db #0x1c	; 28
	.db #0x7e	; 126
	.db #0x3c	; 60
	.db #0x7c	; 124
	.db #0x38	; 56	'8'
	.db #0x7c	; 124
	.db #0x3c	; 60
	.db #0x7c	; 124
	.db #0x3c	; 60
	.db #0x7e	; 126
	.db #0x3e	; 62
	.db #0x7e	; 126
	.db #0x7e	; 126
	.db #0x7f	; 127
	.db #0x7e	; 126
	.db #0x3e	; 62
	.db #0x1c	; 28
	.db #0x7e	; 126
	.db #0x3c	; 60
	.db #0x7c	; 124
	.db #0x3c	; 60
	.db #0x7c	; 124
	.db #0x3c	; 60
	.db #0x7e	; 126
	.db #0x3e	; 62
	.db #0x7f	; 127
	.db #0x7e	; 126
	.db #0x7f	; 127
	.db #0x77	; 119	'w'
	.db #0xff	; 255
	.db #0x77	; 119	'w'
	.db #0x00	; 0
	.db #0x00	; 0
	.db #0x01	; 1
	.db #0x00	; 0
	.db #0x07	; 7
	.db #0x03	; 3
	.db #0x1f	; 31
	.db #0x0f	; 15
	.db #0x1d	; 29
	.db #0x18	; 24
	.db #0x19	; 25
	.db #0x10	; 16
	.db #0x1b	; 27
	.db #0x01	; 1
	.db #0x1b	; 27
	.db #0x01	; 1
	.db #0x78	; 120	'x'
	.db #0x38	; 56	'8'
	.db #0xf8	; 248
	.db #0xf0	; 240
	.db #0xf0	; 240
	.db #0xf0	; 240
	.db #0xe0	; 224
	.db #0xc0	; 192
	.db #0xc0	; 192
	.db #0x80	; 128
	.db #0x80	; 128
	.db #0x80	; 128
	.db #0x80	; 128
	.db #0x00	; 0
	.db #0xe0	; 224
	.db #0x80	; 128
	.db #0x00	; 0
	.db #0x00	; 0
	.db #0x01	; 1
	.db #0x00	; 0
	.db #0x03	; 3
	.db #0x03	; 3
	.db #0x1f	; 31
	.db #0x0f	; 15
	.db #0x0f	; 15
	.db #0x0f	; 15
	.db #0x0f	; 15
	.db #0x0f	; 15
	.db #0x0f	; 15
	.db #0x07	; 7
	.db #0x0f	; 15
	.db #0x07	; 7
	.db #0x78	; 120	'x'
	.db #0x38	; 56	'8'
	.db #0xf8	; 248
	.db #0xf8	; 248
	.db #0xf0	; 240
	.db #0xe0	; 224
	.db #0xe0	; 224
	.db #0xc0	; 192
	.db #0xc0	; 192
	.db #0x80	; 128
	.db #0x80	; 128
	.db #0x00	; 0
	.db #0x80	; 128
	.db #0x00	; 0
	.db #0xc0	; 192
	.db #0x80	; 128
	.db #0x00	; 0
	.db #0x00	; 0
	.db #0x00	; 0
	.db #0x00	; 0
	.db #0x03	; 3
	.db #0x01	; 1
	.db #0x07	; 7
	.db #0x07	; 7
	.db #0x07	; 7
	.db #0x03	; 3
	.db #0x07	; 7
	.db #0x03	; 3
	.db #0x03	; 3
	.db #0x03	; 3
	.db #0x07	; 7
	.db #0x03	; 3
	.db #0x7e	; 126
	.db #0x3c	; 60
	.db #0xfc	; 252
	.db #0x7c	; 124
	.db #0xf0	; 240
	.db #0xc0	; 192
	.db #0xc0	; 192
	.db #0x80	; 128
	.db #0x80	; 128
	.db #0x00	; 0
	.db #0x00	; 0
	.db #0x00	; 0
	.db #0x00	; 0
	.db #0x00	; 0
	.db #0xc0	; 192
	.db #0x80	; 128
	.db #0x00	; 0
	.db #0x00	; 0
	.db #0x00	; 0
	.db #0x00	; 0
	.db #0x01	; 1
	.db #0x01	; 1
	.db #0x03	; 3
	.db #0x01	; 1
	.db #0x03	; 3
	.db #0x01	; 1
	.db #0x03	; 3
	.db #0x03	; 3
	.db #0x07	; 7
	.db #0x03	; 3
	.db #0x07	; 7
	.db #0x07	; 7
	.db #0x7f	; 127
	.db #0x7e	; 126
	.db #0xfe	; 254
	.db #0xf8	; 248
	.db #0xf0	; 240
	.db #0xc0	; 192
	.db #0x80	; 128
	.db #0x80	; 128
	.db #0x80	; 128
	.db #0x00	; 0
	.db #0x00	; 0
	.db #0x00	; 0
	.db #0x00	; 0
	.db #0x00	; 0
	.db #0x80	; 128
	.db #0x80	; 128
	.db #0x00	; 0
	.db #0x00	; 0
	.db #0x01	; 1
	.db #0x00	; 0
	.db #0x03	; 3
	.db #0x01	; 1
	.db #0x03	; 3
	.db #0x03	; 3
	.db #0x03	; 3
	.db #0x03	; 3
	.db #0x07	; 7
	.db #0x02	; 2
	.db #0x06	; 6
	.db #0x06	; 6
	.db #0x0f	; 15
	.db #0x07	; 7
	.db #0xff	; 255
	.db #0x7e	; 126
	.db #0xfc	; 252
	.db #0xf8	; 248
	.db #0xf0	; 240
	.db #0xe0	; 224
	.db #0xc0	; 192
	.db #0xc0	; 192
	.db #0xc0	; 192
	.db #0xc0	; 192
	.db #0xc0	; 192
	.db #0x40	; 64
	.db #0x40	; 64
	.db #0x40	; 64
	.db #0xc0	; 192
	.db #0x40	; 64
	.db #0x38	; 56	'8'
	.db #0x38	; 56	'8'
	.db #0x78	; 120	'x'
	.db #0x38	; 56	'8'
	.db #0xf8	; 248
	.db #0xf0	; 240
	.db #0xf8	; 248
	.db #0xf0	; 240
	.db #0xe0	; 224
	.db #0xc0	; 192
	.db #0xc0	; 192
	.db #0xc0	; 192
	.db #0xe0	; 224
	.db #0xc0	; 192
	.db #0xc0	; 192
	.db #0x00	; 0
	.db #0x38	; 56	'8'
	.db #0x30	; 48	'0'
	.db #0x78	; 120	'x'
	.db #0x38	; 56	'8'
	.db #0xf8	; 248
	.db #0x78	; 120	'x'
	.db #0xf8	; 248
	.db #0xf0	; 240
	.db #0xf0	; 240
	.db #0xc0	; 192
	.db #0xc0	; 192
	.db #0xc0	; 192
	.db #0xe0	; 224
	.db #0xc0	; 192
	.db #0xc0	; 192
	.db #0x00	; 0
	.db #0x38	; 56	'8'
	.db #0x10	; 16
	.db #0x78	; 120	'x'
	.db #0x38	; 56	'8'
	.db #0xf8	; 248
	.db #0x78	; 120	'x'
	.db #0xf8	; 248
	.db #0xf0	; 240
	.db #0xf0	; 240
	.db #0xc0	; 192
	.db #0xc0	; 192
	.db #0xc0	; 192
	.db #0xe0	; 224
	.db #0xc0	; 192
	.db #0xc0	; 192
	.db #0x80	; 128
	.db #0x00	; 0
	.db #0x00	; 0
	.db #0x00	; 0
	.db #0x00	; 0
	.db #0x00	; 0
	.db #0x00	; 0
	.db #0x03	; 3
	.db #0x01	; 1
	.db #0x07	; 7
	.db #0x03	; 3
	.db #0x0f	; 15
	.db #0x07	; 7
	.db #0x0f	; 15
	.db #0x0f	; 15
	.db #0x0f	; 15
	.db #0x0f	; 15
	.db #0x30	; 48	'0'
	.db #0x00	; 0
	.db #0x78	; 120	'x'
	.db #0x38	; 56	'8'
	.db #0xf8	; 248
	.db #0x78	; 120	'x'
	.db #0xf8	; 248
	.db #0xf0	; 240
	.db #0xf0	; 240
	.db #0xe0	; 224
	.db #0xc0	; 192
	.db #0xc0	; 192
	.db #0xc0	; 192
	.db #0xc0	; 192
	.db #0xc0	; 192
	.db #0x80	; 128
	.db #0x10	; 16
	.db #0x00	; 0
	.db #0x38	; 56	'8'
	.db #0x38	; 56	'8'
	.db #0x78	; 120	'x'
	.db #0x38	; 56	'8'
	.db #0xf8	; 248
	.db #0xf0	; 240
	.db #0xf0	; 240
	.db #0xe0	; 224
	.db #0xe0	; 224
	.db #0xc0	; 192
	.db #0xc0	; 192
	.db #0xc0	; 192
	.db #0xc0	; 192
	.db #0xc0	; 192
	.db #0x3e	; 62
	.db #0x1c	; 28
	.db #0x3e	; 62
	.db #0x3c	; 60
	.db #0x7c	; 124
	.db #0x3c	; 60
	.db #0x7e	; 126
	.db #0x3e	; 62
	.db #0x7f	; 127
	.db #0x7f	; 127
	.db #0x7f	; 127
	.db #0x77	; 119	'w'
	.db #0xf7	; 247
	.db #0x63	; 99	'c'
	.db #0xf7	; 247
	.db #0x63	; 99	'c'
	.db #0x00	; 0
	.db #0x00	; 0
	.db #0x00	; 0
	.db #0x00	; 0
	.db #0x00	; 0
	.db #0x00	; 0
	.db #0x00	; 0
	.db #0x00	; 0
	.db #0x00	; 0
	.db #0x00	; 0
	.db #0x80	; 128
	.db #0x00	; 0
	.db #0x80	; 128
	.db #0x80	; 128
	.db #0x80	; 128
	.db #0x00	; 0
	.db #0x1e	; 30
	.db #0x1e	; 30
	.db #0x3e	; 62
	.db #0x3c	; 60
	.db #0x7e	; 126
	.db #0x3c	; 60
	.db #0x7f	; 127
	.db #0x3f	; 63
	.db #0x7f	; 127
	.db #0x3f	; 63
	.db #0x7f	; 127
	.db #0x73	; 115	's'
	.db #0xf3	; 243
	.db #0x61	; 97	'a'
	.db #0xe3	; 227
	.db #0x63	; 99	'c'
	.db #0x00	; 0
	.db #0x00	; 0
	.db #0x00	; 0
	.db #0x00	; 0
	.db #0x00	; 0
	.db #0x00	; 0
	.db #0x00	; 0
	.db #0x00	; 0
	.db #0x80	; 128
	.db #0x80	; 128
	.db #0xc0	; 192
	.db #0xc0	; 192
	.db #0xc0	; 192
	.db #0x80	; 128
	.db #0x80	; 128
	.db #0x00	; 0
	.db #0x1f	; 31
	.db #0x1e	; 30
	.db #0x3e	; 62
	.db #0x1c	; 28
	.db #0x7e	; 126
	.db #0x3e	; 62
	.db #0x7f	; 127
	.db #0x3f	; 63
	.db #0x7f	; 127
	.db #0x3f	; 63
	.db #0x7b	; 123
	.db #0x73	; 115	's'
	.db #0xf1	; 241
	.db #0x61	; 97	'a'
	.db #0xe3	; 227
	.db #0xe1	; 225
	.db #0x00	; 0
	.db #0x00	; 0
	.db #0x00	; 0
	.db #0x00	; 0
	.db #0x00	; 0
	.db #0x00	; 0
	.db #0x80	; 128
	.db #0x00	; 0
	.db #0xc0	; 192
	.db #0xc0	; 192
	.db #0xc0	; 192
	.db #0xc0	; 192
	.db #0xc0	; 192
	.db #0x80	; 128
	.db #0x80	; 128
	.db #0x80	; 128
	.db #0x1f	; 31
	.db #0x0e	; 14
	.db #0x3e	; 62
	.db #0x1c	; 28
	.db #0x3e	; 62
	.db #0x3e	; 62
	.db #0x7f	; 127
	.db #0x3f	; 63
	.db #0x7f	; 127
	.db #0x3f	; 63
	.db #0x7b	; 123
	.db #0x71	; 113	'q'
	.db #0xf1	; 241
	.db #0x60	; 96
	.db #0xe1	; 225
	.db #0xe1	; 225
	.db #0x00	; 0
	.db #0x00	; 0
	.db #0x00	; 0
	.db #0x00	; 0
	.db #0x00	; 0
	.db #0x00	; 0
	.db #0x80	; 128
	.db #0x00	; 0
	.db #0xc0	; 192
	.db #0xc0	; 192
	.db #0xe0	; 224
	.db #0xc0	; 192
	.db #0xc0	; 192
	.db #0xc0	; 192
	.db #0xc0	; 192
	.db #0x80	; 128
	.db #0x1f	; 31
	.db #0x0e	; 14
	.db #0x1e	; 30
	.db #0x1e	; 30
	.db #0x3e	; 62
	.db #0x3e	; 62
	.db #0x7f	; 127
	.db #0x3f	; 63
	.db #0x7f	; 127
	.db #0x3f	; 63
	.db #0x7f	; 127
	.db #0x73	; 115	's'
	.db #0xf1	; 241
	.db #0x60	; 96
	.db #0xf1	; 241
	.db #0xe0	; 224
	.db #0x80	; 128
	.db #0x00	; 0
	.db #0x00	; 0
	.db #0x00	; 0
	.db #0x00	; 0
	.db #0x00	; 0
	.db #0x00	; 0
	.db #0x00	; 0
	.db #0xc0	; 192
	.db #0x80	; 128
	.db #0xe0	; 224
	.db #0xc0	; 192
	.db #0xe0	; 224
	.db #0xc0	; 192
	.db #0xc0	; 192
	.db #0x80	; 128
	.db #0x00	; 0
	.db #0x00	; 0
	.db #0x01	; 1
	.db #0x01	; 1
	.db #0x03	; 3
	.db #0x01	; 1
	.db #0x03	; 3
	.db #0x03	; 3
	.db #0x07	; 7
	.db #0x02	; 2
	.db #0x06	; 6
	.db #0x04	; 4
	.db #0x0e	; 14
	.db #0x04	; 4
	.db #0x0f	; 15
	.db #0x06	; 6
	.db #0xff	; 255
	.db #0xfe	; 254
	.db #0xfc	; 252
	.db #0xf8	; 248
	.db #0xf8	; 248
	.db #0xf0	; 240
	.db #0xf0	; 240
	.db #0xe0	; 224
	.db #0x70	; 112	'p'
	.db #0x20	; 32
	.db #0x30	; 48	'0'
	.db #0x30	; 48	'0'
	.db #0x10	; 16
	.db #0x00	; 0
	.db #0x90	; 144
	.db #0x00	; 0
	.db #0x00	; 0
	.db #0x00	; 0
	.db #0x01	; 1
	.db #0x01	; 1
	.db #0x03	; 3
	.db #0x03	; 3
	.db #0x07	; 7
	.db #0x02	; 2
	.db #0x07	; 7
	.db #0x06	; 6
	.db #0x0e	; 14
	.db #0x04	; 4
	.db #0x0e	; 14
	.db #0x04	; 4
	.db #0x0f	; 15
	.db #0x0e	; 14
	.db #0xe7	; 231
	.db #0xc2	; 194
	.db #0xce	; 206
	.db #0xc4	; 196
	.db #0x8c	; 140
	.db #0x08	; 8
	.db #0x1c	; 28
	.db #0x18	; 24
	.db #0x1c	; 28
	.db #0x18	; 24
	.db #0x0c	; 12
	.db #0x04	; 4
	.db #0x00	; 0
	.db #0x00	; 0
	.db #0x00	; 0
	.db #0x00	; 0
	.db #0x00	; 0
	.db #0x00	; 0
	.db #0x01	; 1
	.db #0x01	; 1
	.db #0x03	; 3
	.db #0x03	; 3
	.db #0x07	; 7
	.db #0x02	; 2
	.db #0x06	; 6
	.db #0x04	; 4
	.db #0x0c	; 12
	.db #0x04	; 4
	.db #0x0c	; 12
	.db #0x0c	; 12
	.db #0x1f	; 31
	.db #0x0e	; 14
	.db #0xe3	; 227
	.db #0xc3	; 195
	.db #0xc7	; 199
	.db #0x82	; 130
	.db #0x86	; 134
	.db #0x00	; 0
	.db #0x0e	; 14
	.db #0x04	; 4
	.db #0x0e	; 14
	.db #0x06	; 6
	.db #0x07	; 7
	.db #0x03	; 3
	.db #0x00	; 0
	.db #0x00	; 0
	.db #0x00	; 0
	.db #0x00	; 0
	.db #0x01	; 1
	.db #0x00	; 0
	.db #0x03	; 3
	.db #0x01	; 1
	.db #0x07	; 7
	.db #0x03	; 3
	.db #0x07	; 7
	.db #0x06	; 6
	.db #0x0e	; 14
	.db #0x04	; 4
	.db #0x0c	; 12
	.db #0x08	; 8
	.db #0x1c	; 28
	.db #0x08	; 8
	.db #0x1e	; 30
	.db #0x0c	; 12
	.db #0xe3	; 227
	.db #0xc1	; 193
	.db #0xc3	; 195
	.db #0x81	; 129
	.db #0x83	; 131
	.db #0x02	; 2
	.db #0x07	; 7
	.db #0x02	; 2
	.db #0x07	; 7
	.db #0x03	; 3
	.db #0x03	; 3
	.db #0x01	; 1
	.db #0x00	; 0
	.db #0x00	; 0
	.db #0x00	; 0
	.db #0x00	; 0
	.db #0x80	; 128
	.db #0x00	; 0
	.db #0x00	; 0
	.db #0x00	; 0
	.db #0x00	; 0
	.db #0x00	; 0
	.db #0x00	; 0
	.db #0x00	; 0
	.db #0x00	; 0
	.db #0x00	; 0
	.db #0x80	; 128
	.db #0x80	; 128
	.db #0x00	; 0
	.db #0x00	; 0
	.db #0x00	; 0
	.db #0x00	; 0
	.db #0x01	; 1
	.db #0x00	; 0
	.db #0x03	; 3
	.db #0x01	; 1
	.db #0x07	; 7
	.db #0x03	; 3
	.db #0x07	; 7
	.db #0x06	; 6
	.db #0x0e	; 14
	.db #0x04	; 4
	.db #0x1c	; 28
	.db #0x08	; 8
	.db #0x18	; 24
	.db #0x18	; 24
	.db #0x3e	; 62
	.db #0x1c	; 28
	.db #0xe1	; 225
	.db #0xc1	; 193
	.db #0xc1	; 193
	.db #0x81	; 129
	.db #0x81	; 129
	.db #0x01	; 1
	.db #0x01	; 1
	.db #0x01	; 1
	.db #0x03	; 3
	.db #0x01	; 1
	.db #0x03	; 3
	.db #0x03	; 3
	.db #0x00	; 0
	.db #0x00	; 0
	.db #0x00	; 0
	.db #0x00	; 0
	.db #0xc0	; 192
	.db #0x80	; 128
	.db #0x80	; 128
	.db #0x00	; 0
	.db #0x80	; 128
	.db #0x00	; 0
	.db #0x00	; 0
	.db #0x00	; 0
	.db #0x80	; 128
	.db #0x00	; 0
	.db #0x80	; 128
	.db #0x80	; 128
	.db #0xc0	; 192
	.db #0x40	; 64
	.db #0x40	; 64
	.db #0x00	; 0
	.db #0x00	; 0
	.db #0x00	; 0
	.db #0x00	; 0
	.db #0x00	; 0
	.db #0x00	; 0
	.db #0x00	; 0
	.db #0x01	; 1
	.db #0x00	; 0
	.db #0x03	; 3
	.db #0x03	; 3
	.db #0x07	; 7
	.db #0x07	; 7
	.db #0x0f	; 15
	.db #0x0f	; 15
	.db #0x0f	; 15
	.db #0x07	; 7
	.db #0x00	; 0
	.db #0x00	; 0
	.db #0x38	; 56	'8'
	.db #0x38	; 56	'8'
	.db #0x78	; 120	'x'
	.db #0x38	; 56	'8'
	.db #0xf8	; 248
	.db #0xf0	; 240
	.db #0xf0	; 240
	.db #0xf0	; 240
	.db #0xe0	; 224
	.db #0xc0	; 192
	.db #0xc0	; 192
	.db #0xc0	; 192
	.db #0xe0	; 224
	.db #0xc0	; 192
	.db #0x00	; 0
	.db #0x00	; 0
	.db #0x00	; 0
	.db #0x00	; 0
	.db #0x00	; 0
	.db #0x00	; 0
	.db #0x00	; 0
	.db #0x00	; 0
	.db #0x03	; 3
	.db #0x01	; 1
	.db #0x07	; 7
	.db #0x03	; 3
	.db #0x0f	; 15
	.db #0x07	; 7
	.db #0x0f	; 15
	.db #0x07	; 7
	.db #0x00	; 0
	.db #0x00	; 0
	.db #0x38	; 56	'8'
	.db #0x30	; 48	'0'
	.db #0x78	; 120	'x'
	.db #0x38	; 56	'8'
	.db #0xf8	; 248
	.db #0x70	; 112	'p'
	.db #0xf8	; 248
	.db #0xf0	; 240
	.db #0xf0	; 240
	.db #0xc0	; 192
	.db #0xc0	; 192
	.db #0xc0	; 192
	.db #0xc0	; 192
	.db #0xc0	; 192
	.db #0x00	; 0
	.db #0x00	; 0
	.db #0x00	; 0
	.db #0x00	; 0
	.db #0x00	; 0
	.db #0x00	; 0
	.db #0x00	; 0
	.db #0x00	; 0
	.db #0x03	; 3
	.db #0x01	; 1
	.db #0x07	; 7
	.db #0x03	; 3
	.db #0x0f	; 15
	.db #0x07	; 7
	.db #0x0f	; 15
	.db #0x0f	; 15
	.db #0x00	; 0
	.db #0x00	; 0
	.db #0x30	; 48	'0'
	.db #0x00	; 0
	.db #0x78	; 120	'x'
	.db #0x38	; 56	'8'
	.db #0x78	; 120	'x'
	.db #0x38	; 56	'8'
	.db #0xf8	; 248
	.db #0xf0	; 240
	.db #0xf0	; 240
	.db #0xe0	; 224
	.db #0xc0	; 192
	.db #0xc0	; 192
	.db #0xc0	; 192
	.db #0xc0	; 192
	.db #0x00	; 0
	.db #0x00	; 0
	.db #0x00	; 0
	.db #0x00	; 0
	.db #0x00	; 0
	.db #0x00	; 0
	.db #0x00	; 0
	.db #0x00	; 0
	.db #0x01	; 1
	.db #0x00	; 0
	.db #0x03	; 3
	.db #0x01	; 1
	.db #0x07	; 7
	.db #0x07	; 7
	.db #0x0f	; 15
	.db #0x07	; 7
	.db #0x00	; 0
	.db #0x00	; 0
	.db #0x00	; 0
	.db #0x00	; 0
	.db #0x38	; 56	'8'
	.db #0x38	; 56	'8'
	.db #0x7c	; 124
	.db #0x38	; 56	'8'
	.db #0xf8	; 248
	.db #0xf8	; 248
	.db #0xf8	; 248
	.db #0xf0	; 240
	.db #0xe0	; 224
	.db #0xc0	; 192
	.db #0xe0	; 224
	.db #0xc0	; 192
	.db #0x00	; 0
	.db #0x00	; 0
	.db #0x00	; 0
	.db #0x00	; 0
	.db #0x00	; 0
	.db #0x00	; 0
	.db #0x00	; 0
	.db #0x00	; 0
	.db #0x00	; 0
	.db #0x00	; 0
	.db #0x03	; 3
	.db #0x01	; 1
	.db #0x07	; 7
	.db #0x03	; 3
	.db #0x07	; 7
	.db #0x07	; 7
	.db #0x00	; 0
	.db #0x00	; 0
	.db #0x00	; 0
	.db #0x00	; 0
	.db #0x38	; 56	'8'
	.db #0x18	; 24
	.db #0x3c	; 60
	.db #0x38	; 56	'8'
	.db #0xfc	; 252
	.db #0xf8	; 248
	.db #0xf8	; 248
	.db #0xf0	; 240
	.db #0xf0	; 240
	.db #0xc0	; 192
	.db #0xe0	; 224
	.db #0xc0	; 192
	.db #0x0f	; 15
	.db #0x0f	; 15
	.db #0x1f	; 31
	.db #0x0e	; 14
	.db #0x3e	; 62
	.db #0x1c	; 28
	.db #0x3e	; 62
	.db #0x3e	; 62
	.db #0x7f	; 127
	.db #0x3f	; 63
	.db #0x7f	; 127
	.db #0x7f	; 127
	.db #0xf3	; 243
	.db #0x63	; 99	'c'
	.db #0xf1	; 241
	.db #0xe0	; 224
	.db #0xc0	; 192
	.db #0x00	; 0
	.db #0x00	; 0
	.db #0x00	; 0
	.db #0x00	; 0
	.db #0x00	; 0
	.db #0x00	; 0
	.db #0x00	; 0
	.db #0x80	; 128
	.db #0x00	; 0
	.db #0xc0	; 192
	.db #0x80	; 128
	.db #0xc0	; 192
	.db #0xc0	; 192
	.db #0xc0	; 192
	.db #0xc0	; 192
	.db #0x0f	; 15
	.db #0x0f	; 15
	.db #0x1f	; 31
	.db #0x0e	; 14
	.db #0x3e	; 62
	.db #0x1c	; 28
	.db #0x3e	; 62
	.db #0x3c	; 60
	.db #0x7f	; 127
	.db #0x3e	; 62
	.db #0x7f	; 127
	.db #0x7f	; 127
	.db #0xff	; 255
	.db #0x73	; 115	's'
	.db #0xf3	; 243
	.db #0xe1	; 225
	.db #0xc0	; 192
	.db #0x80	; 128
	.db #0x00	; 0
	.db #0x00	; 0
	.db #0x00	; 0
	.db #0x00	; 0
	.db #0x00	; 0
	.db #0x00	; 0
	.db #0x00	; 0
	.db #0x00	; 0
	.db #0x80	; 128
	.db #0x80	; 128
	.db #0xc0	; 192
	.db #0xc0	; 192
	.db #0xc0	; 192
	.db #0xc0	; 192
	.db #0x0f	; 15
	.db #0x07	; 7
	.db #0x1f	; 31
	.db #0x0e	; 14
	.db #0x1e	; 30
	.db #0x1e	; 30
	.db #0x3e	; 62
	.db #0x3c	; 60
	.db #0x7e	; 126
	.db #0x3e	; 62
	.db #0x7f	; 127
	.db #0x7f	; 127
	.db #0xff	; 255
	.db #0xf7	; 247
	.db #0xe7	; 231
	.db #0xe3	; 227
	.db #0xc0	; 192
	.db #0xc0	; 192
	.db #0x80	; 128
	.db #0x00	; 0
	.db #0x00	; 0
	.db #0x00	; 0
	.db #0x00	; 0
	.db #0x00	; 0
	.db #0x00	; 0
	.db #0x00	; 0
	.db #0x00	; 0
	.db #0x00	; 0
	.db #0x80	; 128
	.db #0x80	; 128
	.db #0xc0	; 192
	.db #0xc0	; 192
	.db #0x0f	; 15
	.db #0x07	; 7
	.db #0x0f	; 15
	.db #0x0f	; 15
	.db #0x1f	; 31
	.db #0x0e	; 14
	.db #0x3e	; 62
	.db #0x1c	; 28
	.db #0x3e	; 62
	.db #0x3c	; 60
	.db #0x7f	; 127
	.db #0x7e	; 126
	.db #0xff	; 255
	.db #0xff	; 255
	.db #0xf7	; 247
	.db #0xe3	; 227
	.db #0xe0	; 224
	.db #0xc0	; 192
	.db #0xc0	; 192
	.db #0x80	; 128
	.db #0x00	; 0
	.db #0x00	; 0
	.db #0x00	; 0
	.db #0x00	; 0
	.db #0x00	; 0
	.db #0x00	; 0
	.db #0x00	; 0
	.db #0x00	; 0
	.db #0x80	; 128
	.db #0x00	; 0
	.db #0xc0	; 192
	.db #0x80	; 128
	.db #0x0f	; 15
	.db #0x07	; 7
	.db #0x0f	; 15
	.db #0x0f	; 15
	.db #0x1f	; 31
	.db #0x0e	; 14
	.db #0x3e	; 62
	.db #0x1c	; 28
	.db #0x3e	; 62
	.db #0x3e	; 62
	.db #0x7f	; 127
	.db #0x7e	; 126
	.db #0xff	; 255
	.db #0xff	; 255
	.db #0xe7	; 231
	.db #0xe3	; 227
	.db #0xe0	; 224
	.db #0xc0	; 192
	.db #0xc0	; 192
	.db #0x80	; 128
	.db #0x00	; 0
	.db #0x00	; 0
	.db #0x00	; 0
	.db #0x00	; 0
	.db #0x00	; 0
	.db #0x00	; 0
	.db #0x00	; 0
	.db #0x00	; 0
	.db #0x80	; 128
	.db #0x00	; 0
	.db #0x80	; 128
	.db #0x80	; 128
	.db #0x01	; 1
	.db #0x00	; 0
	.db #0x03	; 3
	.db #0x01	; 1
	.db #0x07	; 7
	.db #0x03	; 3
	.db #0x0f	; 15
	.db #0x06	; 6
	.db #0x0e	; 14
	.db #0x0c	; 12
	.db #0x1c	; 28
	.db #0x08	; 8
	.db #0x18	; 24
	.db #0x10	; 16
	.db #0x3c	; 60
	.db #0x18	; 24
	.db #0xe1	; 225
	.db #0xc0	; 192
	.db #0xc1	; 193
	.db #0x81	; 129
	.db #0x81	; 129
	.db #0x01	; 1
	.db #0x03	; 3
	.db #0x01	; 1
	.db #0x03	; 3
	.db #0x01	; 1
	.db #0x03	; 3
	.db #0x03	; 3
	.db #0x03	; 3
	.db #0x03	; 3
	.db #0x03	; 3
	.db #0x01	; 1
	.db #0xc0	; 192
	.db #0x80	; 128
	.db #0x80	; 128
	.db #0x80	; 128
	.db #0x80	; 128
	.db #0x00	; 0
	.db #0x00	; 0
	.db #0x00	; 0
	.db #0x00	; 0
	.db #0x00	; 0
	.db #0x00	; 0
	.db #0x00	; 0
	.db #0x80	; 128
	.db #0x80	; 128
	.db #0xc0	; 192
	.db #0xc0	; 192
	.db #0x01	; 1
	.db #0x01	; 1
	.db #0x03	; 3
	.db #0x03	; 3
	.db #0x07	; 7
	.db #0x07	; 7
	.db #0x0e	; 14
	.db #0x0c	; 12
	.db #0x1c	; 28
	.db #0x08	; 8
	.db #0x18	; 24
	.db #0x10	; 16
	.db #0x38	; 56	'8'
	.db #0x10	; 16
	.db #0x3c	; 60
	.db #0x38	; 56	'8'
	.db #0xe1	; 225
	.db #0xc0	; 192
	.db #0xc1	; 193
	.db #0x81	; 129
	.db #0x83	; 131
	.db #0x01	; 1
	.db #0x03	; 3
	.db #0x01	; 1
	.db #0x03	; 3
	.db #0x00	; 0
	.db #0x03	; 3
	.db #0x02	; 2
	.db #0x07	; 7
	.db #0x03	; 3
	.db #0x07	; 7
	.db #0x03	; 3
	.db #0xc0	; 192
	.db #0x80	; 128
	.db #0x80	; 128
	.db #0x80	; 128
	.db #0x80	; 128
	.db #0x00	; 0
	.db #0x00	; 0
	.db #0x00	; 0
	.db #0x00	; 0
	.db #0x00	; 0
	.db #0x00	; 0
	.db #0x00	; 0
	.db #0x00	; 0
	.db #0x00	; 0
	.db #0x80	; 128
	.db #0x00	; 0
	.db #0x01	; 1
	.db #0x01	; 1
	.db #0x07	; 7
	.db #0x03	; 3
	.db #0x0f	; 15
	.db #0x06	; 6
	.db #0x1e	; 30
	.db #0x0c	; 12
	.db #0x1c	; 28
	.db #0x18	; 24
	.db #0x38	; 56	'8'
	.db #0x10	; 16
	.db #0x30	; 48	'0'
	.db #0x30	; 48	'0'
	.db #0x7c	; 124
	.db #0x38	; 56	'8'
	.db #0xc1	; 193
	.db #0xc1	; 193
	.db #0x81	; 129
	.db #0x81	; 129
	.db #0x03	; 3
	.db #0x01	; 1
	.db #0x03	; 3
	.db #0x02	; 2
	.db #0x07	; 7
	.db #0x02	; 2
	.db #0x06	; 6
	.db #0x00	; 0
	.db #0x06	; 6
	.db #0x04	; 4
	.db #0x0f	; 15
	.db #0x07	; 7
	.db #0xc0	; 192
	.db #0xc0	; 192
	.db #0xc0	; 192
	.db #0x80	; 128
	.db #0x80	; 128
	.db #0x00	; 0
	.db #0x00	; 0
	.db #0x00	; 0
	.db #0x00	; 0
	.db #0x00	; 0
	.db #0x00	; 0
	.db #0x00	; 0
	.db #0x00	; 0
	.db #0x00	; 0
	.db #0x80	; 128
	.db #0x00	; 0
	.db #0x03	; 3
	.db #0x01	; 1
	.db #0x07	; 7
	.db #0x03	; 3
	.db #0x0f	; 15
	.db #0x06	; 6
	.db #0x1e	; 30
	.db #0x0c	; 12
	.db #0x18	; 24
	.db #0x18	; 24
	.db #0x30	; 48	'0'
	.db #0x10	; 16
	.db #0x70	; 112	'p'
	.db #0x30	; 48	'0'
	.db #0x78	; 120	'x'
	.db #0x30	; 48	'0'
	.db #0xc3	; 195
	.db #0xc1	; 193
	.db #0x81	; 129
	.db #0x81	; 129
	.db #0x03	; 3
	.db #0x03	; 3
	.db #0x07	; 7
	.db #0x02	; 2
	.db #0x06	; 6
	.db #0x02	; 2
	.db #0x06	; 6
	.db #0x04	; 4
	.db #0x0e	; 14
	.db #0x04	; 4
	.db #0x0f	; 15
	.db #0x0e	; 14
	.db #0xc0	; 192
	.db #0xc0	; 192
	.db #0xc0	; 192
	.db #0x80	; 128
	.db #0x80	; 128
	.db #0x00	; 0
	.db #0x00	; 0
	.db #0x00	; 0
	.db #0x00	; 0
	.db #0x00	; 0
	.db #0x00	; 0
	.db #0x00	; 0
	.db #0x00	; 0
	.db #0x00	; 0
	.db #0x00	; 0
	.db #0x00	; 0
	.db #0x03	; 3
	.db #0x01	; 1
	.db #0x07	; 7
	.db #0x07	; 7
	.db #0x0f	; 15
	.db #0x0e	; 14
	.db #0x1c	; 28
	.db #0x08	; 8
	.db #0x38	; 56	'8'
	.db #0x10	; 16
	.db #0x30	; 48	'0'
	.db #0x20	; 32
	.db #0x70	; 112	'p'
	.db #0x20	; 32
	.db #0x78	; 120	'x'
	.db #0x70	; 112	'p'
	.db #0xc3	; 195
	.db #0xc1	; 193
	.db #0x83	; 131
	.db #0x01	; 1
	.db #0x03	; 3
	.db #0x03	; 3
	.db #0x07	; 7
	.db #0x02	; 2
	.db #0x06	; 6
	.db #0x04	; 4
	.db #0x0c	; 12
	.db #0x04	; 4
	.db #0x0c	; 12
	.db #0x0c	; 12
	.db #0x1f	; 31
	.db #0x0e	; 14
_TILESETWALKER_76_100:
	.db #0x00	; 0
	.db #0x00	; 0
	.db #0x00	; 0
	.db #0x00	; 0
	.db #0x00	; 0
	.db #0x00	; 0
	.db #0x00	; 0
	.db #0x00	; 0
	.db #0x00	; 0
	.db #0x00	; 0
	.db #0x00	; 0
	.db #0x00	; 0
	.db #0x00	; 0
	.db #0x00	; 0
	.db #0x00	; 0
	.db #0x00	; 0
	.db #0x00	; 0
	.db #0x00	; 0
	.db #0x00	; 0
	.db #0x00	; 0
	.db #0x00	; 0
	.db #0x00	; 0
	.db #0x00	; 0
	.db #0x00	; 0
	.db #0x01	; 1
	.db #0x00	; 0
	.db #0x03	; 3
	.db #0x01	; 1
	.db #0x07	; 7
	.db #0x03	; 3
	.db #0x07	; 7
	.db #0x07	; 7
	.db #0x00	; 0
	.db #0x00	; 0
	.db #0x00	; 0
	.db #0x00	; 0
	.db #0x18	; 24
	.db #0x18	; 24
	.db #0x3c	; 60
	.db #0x38	; 56	'8'
	.db #0xfc	; 252
	.db #0xf8	; 248
	.db #0xf8	; 248
	.db #0xf0	; 240
	.db #0xf0	; 240
	.db #0xc0	; 192
	.db #0xe0	; 224
	.db #0xc0	; 192
	.db #0x00	; 0
	.db #0x00	; 0
	.db #0x00	; 0
	.db #0x00	; 0
	.db #0x1c	; 28
	.db #0x18	; 24
	.db #0x3c	; 60
	.db #0x1c	; 28
	.db #0xfc	; 252
	.db #0xf8	; 248
	.db #0xf8	; 248
	.db #0xf0	; 240
	.db #0xf0	; 240
	.db #0xc0	; 192
	.db #0xe0	; 224
	.db #0xc0	; 192
	.db #0x00	; 0
	.db #0x00	; 0
	.db #0x00	; 0
	.db #0x00	; 0
	.db #0x1c	; 28
	.db #0x18	; 24
	.db #0x3c	; 60
	.db #0x1c	; 28
	.db #0xfc	; 252
	.db #0xf8	; 248
	.db #0xf8	; 248
	.db #0xf0	; 240
	.db #0xe0	; 224
	.db #0xc0	; 192
	.db #0xe0	; 224
	.db #0xc0	; 192
	.db #0x00	; 0
	.db #0x00	; 0
	.db #0x00	; 0
	.db #0x00	; 0
	.db #0x00	; 0
	.db #0x00	; 0
	.db #0x00	; 0
	.db #0x00	; 0
	.db #0x01	; 1
	.db #0x00	; 0
	.db #0x03	; 3
	.db #0x03	; 3
	.db #0x07	; 7
	.db #0x07	; 7
	.db #0x07	; 7
	.db #0x07	; 7
	.db #0x00	; 0
	.db #0x00	; 0
	.db #0x18	; 24
	.db #0x00	; 0
	.db #0x3c	; 60
	.db #0x1c	; 28
	.db #0x7c	; 124
	.db #0x3c	; 60
	.db #0xfc	; 252
	.db #0xf8	; 248
	.db #0xf8	; 248
	.db #0xd0	; 208
	.db #0xe0	; 224
	.db #0xc0	; 192
	.db #0xe0	; 224
	.db #0xc0	; 192
	.db #0x00	; 0
	.db #0x00	; 0
	.db #0x00	; 0
	.db #0x00	; 0
	.db #0x00	; 0
	.db #0x00	; 0
	.db #0x00	; 0
	.db #0x00	; 0
	.db #0x01	; 1
	.db #0x01	; 1
	.db #0x07	; 7
	.db #0x03	; 3
	.db #0x07	; 7
	.db #0x07	; 7
	.db #0x0f	; 15
	.db #0x07	; 7
	.db #0x00	; 0
	.db #0x00	; 0
	.db #0x18	; 24
	.db #0x00	; 0
	.db #0x3c	; 60
	.db #0x1c	; 28
	.db #0xfc	; 252
	.db #0x38	; 56	'8'
	.db #0xfc	; 252
	.db #0xf8	; 248
	.db #0xf8	; 248
	.db #0xe0	; 224
	.db #0xe0	; 224
	.db #0xc0	; 192
	.db #0xe0	; 224
	.db #0xc0	; 192
	.db #0x00	; 0
	.db #0x00	; 0
	.db #0x00	; 0
	.db #0x00	; 0
	.db #0x00	; 0
	.db #0x00	; 0
	.db #0x00	; 0
	.db #0x00	; 0
	.db #0x00	; 0
	.db #0x00	; 0
	.db #0x00	; 0
	.db #0x00	; 0
	.db #0x00	; 0
	.db #0x00	; 0
	.db #0x01	; 1
	.db #0x01	; 1
	.db #0x0f	; 15
	.db #0x07	; 7
	.db #0x0f	; 15
	.db #0x0f	; 15
	.db #0x1f	; 31
	.db #0x1e	; 30
	.db #0x3e	; 62
	.db #0x3c	; 60
	.db #0x7e	; 126
	.db #0x3c	; 60
	.db #0xff	; 255
	.db #0x7e	; 126
	.db #0xff	; 255
	.db #0xff	; 255
	.db #0xe7	; 231
	.db #0xc7	; 199
	.db #0xe0	; 224
	.db #0xc0	; 192
	.db #0xc0	; 192
	.db #0x80	; 128
	.db #0x00	; 0
	.db #0x00	; 0
	.db #0x00	; 0
	.db #0x00	; 0
	.db #0x00	; 0
	.db #0x00	; 0
	.db #0x00	; 0
	.db #0x00	; 0
	.db #0x80	; 128
	.db #0x00	; 0
	.db #0x80	; 128
	.db #0x80	; 128
	.db #0x00	; 0
	.db #0x00	; 0
	.db #0x00	; 0
	.db #0x00	; 0
	.db #0x00	; 0
	.db #0x00	; 0
	.db #0x00	; 0
	.db #0x00	; 0
	.db #0x00	; 0
	.db #0x00	; 0
	.db #0x00	; 0
	.db #0x00	; 0
	.db #0x01	; 1
	.db #0x00	; 0
	.db #0x01	; 1
	.db #0x01	; 1
	.db #0x0f	; 15
	.db #0x07	; 7
	.db #0x1f	; 31
	.db #0x0f	; 15
	.db #0x3e	; 62
	.db #0x1e	; 30
	.db #0x3e	; 62
	.db #0x3c	; 60
	.db #0x7e	; 126
	.db #0x3c	; 60
	.db #0xfe	; 254
	.db #0x7e	; 126
	.db #0xff	; 255
	.db #0xef	; 239
	.db #0xe7	; 231
	.db #0xc7	; 199
	.db #0xe0	; 224
	.db #0xc0	; 192
	.db #0xc0	; 192
	.db #0x00	; 0
	.db #0x00	; 0
	.db #0x00	; 0
	.db #0x00	; 0
	.db #0x00	; 0
	.db #0x00	; 0
	.db #0x00	; 0
	.db #0x00	; 0
	.db #0x00	; 0
	.db #0x00	; 0
	.db #0x00	; 0
	.db #0x80	; 128
	.db #0x00	; 0
	.db #0x0f	; 15
	.db #0x07	; 7
	.db #0x1f	; 31
	.db #0x0e	; 14
	.db #0x3e	; 62
	.db #0x1c	; 28
	.db #0x3e	; 62
	.db #0x3c	; 60
	.db #0x7e	; 126
	.db #0x3c	; 60
	.db #0xfe	; 254
	.db #0x7e	; 126
	.db #0xff	; 255
	.db #0xee	; 238
	.db #0xe7	; 231
	.db #0xc7	; 199
	.db #0xe0	; 224
	.db #0xc0	; 192
	.db #0x80	; 128
	.db #0x00	; 0
	.db #0x00	; 0
	.db #0x00	; 0
	.db #0x00	; 0
	.db #0x00	; 0
	.db #0x00	; 0
	.db #0x00	; 0
	.db #0x00	; 0
	.db #0x00	; 0
	.db #0x00	; 0
	.db #0x00	; 0
	.db #0x00	; 0
	.db #0x00	; 0
	.db #0x00	; 0
	.db #0x00	; 0
	.db #0x00	; 0
	.db #0x00	; 0
	.db #0x00	; 0
	.db #0x00	; 0
	.db #0x00	; 0
	.db #0x00	; 0
	.db #0x00	; 0
	.db #0x00	; 0
	.db #0x00	; 0
	.db #0x00	; 0
	.db #0x01	; 1
	.db #0x00	; 0
	.db #0x03	; 3
	.db #0x01	; 1
	.db #0x0f	; 15
	.db #0x0f	; 15
	.db #0x1f	; 31
	.db #0x1e	; 30
	.db #0x3e	; 62
	.db #0x3c	; 60
	.db #0x7c	; 124
	.db #0x3c	; 60
	.db #0x7e	; 126
	.db #0x7c	; 124
	.db #0xfe	; 254
	.db #0xfe	; 254
	.db #0xff	; 255
	.db #0xee	; 238
	.db #0xc7	; 199
	.db #0xc7	; 199
	.db #0xe0	; 224
	.db #0xc0	; 192
	.db #0x00	; 0
	.db #0x00	; 0
	.db #0x00	; 0
	.db #0x00	; 0
	.db #0x00	; 0
	.db #0x00	; 0
	.db #0x00	; 0
	.db #0x00	; 0
	.db #0x00	; 0
	.db #0x00	; 0
	.db #0x00	; 0
	.db #0x00	; 0
	.db #0x00	; 0
	.db #0x00	; 0
	.db #0x0f	; 15
	.db #0x0f	; 15
	.db #0x3f	; 63
	.db #0x1e	; 30
	.db #0x3e	; 62
	.db #0x3c	; 60
	.db #0x7c	; 124
	.db #0x3c	; 60
	.db #0xfc	; 252
	.db #0x7c	; 124
	.db #0xfe	; 254
	.db #0xfe	; 254
	.db #0xfe	; 254
	.db #0xce	; 206
	.db #0xcf	; 207
	.db #0x86	; 134
	.db #0xc0	; 192
	.db #0x00	; 0
	.db #0x00	; 0
	.db #0x00	; 0
	.db #0x00	; 0
	.db #0x00	; 0
	.db #0x00	; 0
	.db #0x00	; 0
	.db #0x00	; 0
	.db #0x00	; 0
	.db #0x00	; 0
	.db #0x00	; 0
	.db #0x00	; 0
	.db #0x00	; 0
	.db #0x00	; 0
	.db #0x00	; 0
	.db #0x03	; 3
	.db #0x01	; 1
	.db #0x0f	; 15
	.db #0x07	; 7
	.db #0x1f	; 31
	.db #0x0c	; 12
	.db #0x1c	; 28
	.db #0x18	; 24
	.db #0x38	; 56	'8'
	.db #0x10	; 16
	.db #0x70	; 112	'p'
	.db #0x20	; 32
	.db #0x60	; 96
	.db #0x60	; 96
	.db #0xf0	; 240
	.db #0x70	; 112	'p'
	.db #0xc3	; 195
	.db #0x83	; 131
	.db #0x83	; 131
	.db #0x01	; 1
	.db #0x07	; 7
	.db #0x03	; 3
	.db #0x07	; 7
	.db #0x06	; 6
	.db #0x0e	; 14
	.db #0x04	; 4
	.db #0x0c	; 12
	.db #0x08	; 8
	.db #0x1c	; 28
	.db #0x08	; 8
	.db #0x1e	; 30
	.db #0x0c	; 12
	.db #0xc0	; 192
	.db #0x80	; 128
	.db #0xc0	; 192
	.db #0x80	; 128
	.db #0x80	; 128
	.db #0x00	; 0
	.db #0x00	; 0
	.db #0x00	; 0
	.db #0x00	; 0
	.db #0x00	; 0
	.db #0x00	; 0
	.db #0x00	; 0
	.db #0x00	; 0
	.db #0x00	; 0
	.db #0x00	; 0
	.db #0x00	; 0
	.db #0x03	; 3
	.db #0x03	; 3
	.db #0x0f	; 15
	.db #0x07	; 7
	.db #0x1e	; 30
	.db #0x0c	; 12
	.db #0x1c	; 28
	.db #0x18	; 24
	.db #0x30	; 48	'0'
	.db #0x30	; 48	'0'
	.db #0x70	; 112	'p'
	.db #0x20	; 32
	.db #0xe0	; 224
	.db #0x60	; 96
	.db #0xf0	; 240
	.db #0x60	; 96
	.db #0xc3	; 195
	.db #0x83	; 131
	.db #0x83	; 131
	.db #0x03	; 3
	.db #0x07	; 7
	.db #0x02	; 2
	.db #0x0e	; 14
	.db #0x04	; 4
	.db #0x0c	; 12
	.db #0x04	; 4
	.db #0x0c	; 12
	.db #0x08	; 8
	.db #0x1c	; 28
	.db #0x08	; 8
	.db #0x1e	; 30
	.db #0x1c	; 28
	.db #0x80	; 128
	.db #0x80	; 128
	.db #0x80	; 128
	.db #0x00	; 0
	.db #0x00	; 0
	.db #0x00	; 0
	.db #0x00	; 0
	.db #0x00	; 0
	.db #0x00	; 0
	.db #0x00	; 0
	.db #0x00	; 0
	.db #0x00	; 0
	.db #0x00	; 0
	.db #0x00	; 0
	.db #0x00	; 0
	.db #0x00	; 0
	.db #0x07	; 7
	.db #0x03	; 3
	.db #0x0f	; 15
	.db #0x06	; 6
	.db #0x1e	; 30
	.db #0x0c	; 12
	.db #0x18	; 24
	.db #0x18	; 24
	.db #0x30	; 48	'0'
	.db #0x30	; 48	'0'
	.db #0x70	; 112	'p'
	.db #0x60	; 96
	.db #0xe0	; 224
	.db #0x60	; 96
	.db #0xf0	; 240
	.db #0x60	; 96
	.db #0xc7	; 199
	.db #0x83	; 131
	.db #0x07	; 7
	.db #0x03	; 3
	.db #0x07	; 7
	.db #0x06	; 6
	.db #0x0e	; 14
	.db #0x04	; 4
	.db #0x0c	; 12
	.db #0x08	; 8
	.db #0x18	; 24
	.db #0x00	; 0
	.db #0x18	; 24
	.db #0x18	; 24
	.db #0x3e	; 62
	.db #0x1c	; 28
	.db #0x80	; 128
	.db #0x00	; 0
	.db #0x80	; 128
	.db #0x00	; 0
	.db #0x00	; 0
	.db #0x00	; 0
	.db #0x00	; 0
	.db #0x00	; 0
	.db #0x00	; 0
	.db #0x00	; 0
	.db #0x00	; 0
	.db #0x00	; 0
	.db #0x00	; 0
	.db #0x00	; 0
	.db #0x00	; 0
	.db #0x00	; 0
	.db #0x07	; 7
	.db #0x03	; 3
	.db #0x0f	; 15
	.db #0x0e	; 14
	.db #0x1c	; 28
	.db #0x0c	; 12
	.db #0x18	; 24
	.db #0x10	; 16
	.db #0x30	; 48	'0'
	.db #0x20	; 32
	.db #0x70	; 112	'p'
	.db #0x60	; 96
	.db #0x60	; 96
	.db #0x60	; 96
	.db #0x70	; 112	'p'
	.db #0x60	; 96
	.db #0x87	; 135
	.db #0x03	; 3
	.db #0x07	; 7
	.db #0x03	; 3
	.db #0x0e	; 14
	.db #0x06	; 6
	.db #0x0c	; 12
	.db #0x0c	; 12
	.db #0x1c	; 28
	.db #0x08	; 8
	.db #0x18	; 24
	.db #0x10	; 16
	.db #0x38	; 56	'8'
	.db #0x10	; 16
	.db #0x3c	; 60
	.db #0x38	; 56	'8'
	.db #0x07	; 7
	.db #0x07	; 7
	.db #0x0f	; 15
	.db #0x0e	; 14
	.db #0x1c	; 28
	.db #0x0c	; 12
	.db #0x18	; 24
	.db #0x18	; 24
	.db #0x30	; 48	'0'
	.db #0x10	; 16
	.db #0x70	; 112	'p'
	.db #0x60	; 96
	.db #0x60	; 96
	.db #0x60	; 96
	.db #0x60	; 96
	.db #0x20	; 32
	.db #0x87	; 135
	.db #0x07	; 7
	.db #0x07	; 7
	.db #0x06	; 6
	.db #0x0e	; 14
	.db #0x0c	; 12
	.db #0x1c	; 28
	.db #0x08	; 8
	.db #0x18	; 24
	.db #0x10	; 16
	.db #0x30	; 48	'0'
	.db #0x10	; 16
	.db #0x30	; 48	'0'
	.db #0x30	; 48	'0'
	.db #0x7c	; 124
	.db #0x38	; 56	'8'
	.db #0x00	; 0
	.db #0x00	; 0
	.db #0x00	; 0
	.db #0x00	; 0
	.db #0x00	; 0
	.db #0x00	; 0
	.db #0x01	; 1
	.db #0x00	; 0
	.db #0x03	; 3
	.db #0x01	; 1
	.db #0x07	; 7
	.db #0x03	; 3
	.db #0x07	; 7
	.db #0x07	; 7
	.db #0x0f	; 15
	.db #0x07	; 7
	.db #0x00	; 0
	.db #0x00	; 0
	.db #0x1c	; 28
	.db #0x18	; 24
	.db #0x3c	; 60
	.db #0x1c	; 28
	.db #0xfc	; 252
	.db #0xf8	; 248
	.db #0xf8	; 248
	.db #0xf0	; 240
	.db #0xf0	; 240
	.db #0xc0	; 192
	.db #0xe0	; 224
	.db #0xe0	; 224
	.db #0xe0	; 224
	.db #0xc0	; 192
	.db #0x00	; 0
	.db #0x00	; 0
	.db #0x00	; 0
	.db #0x00	; 0
	.db #0x00	; 0
	.db #0x00	; 0
	.db #0x01	; 1
	.db #0x00	; 0
	.db #0x03	; 3
	.db #0x01	; 1
	.db #0x07	; 7
	.db #0x07	; 7
	.db #0x07	; 7
	.db #0x07	; 7
	.db #0x0f	; 15
	.db #0x07	; 7
	.db #0x08	; 8
	.db #0x00	; 0
	.db #0x1c	; 28
	.db #0x18	; 24
	.db #0x3c	; 60
	.db #0x1c	; 28
	.db #0xfc	; 252
	.db #0xf8	; 248
	.db #0xf8	; 248
	.db #0xf0	; 240
	.db #0xe0	; 224
	.db #0xe0	; 224
	.db #0xe0	; 224
	.db #0xe0	; 224
	.db #0xe0	; 224
	.db #0xc0	; 192
	.db #0x00	; 0
	.db #0x00	; 0
	.db #0x00	; 0
	.db #0x00	; 0
	.db #0x00	; 0
	.db #0x00	; 0
	.db #0x01	; 1
	.db #0x01	; 1
	.db #0x03	; 3
	.db #0x03	; 3
	.db #0x07	; 7
	.db #0x07	; 7
	.db #0x0f	; 15
	.db #0x07	; 7
	.db #0x0f	; 15
	.db #0x0f	; 15
	.db #0x18	; 24
	.db #0x00	; 0
	.db #0x3c	; 60
	.db #0x1c	; 28
	.db #0xfc	; 252
	.db #0x38	; 56	'8'
	.db #0xf8	; 248
	.db #0xf8	; 248
	.db #0xf0	; 240
	.db #0xe0	; 224
	.db #0xe0	; 224
	.db #0xc0	; 192
	.db #0xe0	; 224
	.db #0xc0	; 192
	.db #0xc0	; 192
	.db #0x80	; 128
	.db #0x00	; 0
	.db #0x00	; 0
	.db #0x00	; 0
	.db #0x00	; 0
	.db #0x01	; 1
	.db #0x00	; 0
	.db #0x03	; 3
	.db #0x01	; 1
	.db #0x07	; 7
	.db #0x07	; 7
	.db #0x07	; 7
	.db #0x07	; 7
	.db #0x0f	; 15
	.db #0x07	; 7
	.db #0x1f	; 31
	.db #0x0f	; 15
	.db #0x18	; 24
	.db #0x18	; 24
	.db #0x3c	; 60
	.db #0x18	; 24
	.db #0xfc	; 252
	.db #0xf8	; 248
	.db #0xf8	; 248
	.db #0xf0	; 240
	.db #0xf0	; 240
	.db #0xc0	; 192
	.db #0xe0	; 224
	.db #0xc0	; 192
	.db #0xe0	; 224
	.db #0xc0	; 192
	.db #0xc0	; 192
	.db #0x80	; 128
	.db #0x00	; 0
	.db #0x00	; 0
	.db #0x00	; 0
	.db #0x00	; 0
	.db #0x01	; 1
	.db #0x01	; 1
	.db #0x03	; 3
	.db #0x03	; 3
	.db #0x07	; 7
	.db #0x07	; 7
	.db #0x0f	; 15
	.db #0x07	; 7
	.db #0x0f	; 15
	.db #0x0f	; 15
	.db #0x1f	; 31
	.db #0x0f	; 15
	.db #0x38	; 56	'8'
	.db #0x18	; 24
	.db #0x7c	; 124
	.db #0x38	; 56	'8'
	.db #0xf8	; 248
	.db #0xf8	; 248
	.db #0xf8	; 248
	.db #0xf0	; 240
	.db #0xe0	; 224
	.db #0xc0	; 192
	.db #0xe0	; 224
	.db #0xc0	; 192
	.db #0xe0	; 224
	.db #0xc0	; 192
	.db #0xc0	; 192
	.db #0x80	; 128
	.db #0x00	; 0
	.db #0x00	; 0
	.db #0x00	; 0
	.db #0x00	; 0
	.db #0x00	; 0
	.db #0x00	; 0
	.db #0x00	; 0
	.db #0x00	; 0
	.db #0x00	; 0
	.db #0x00	; 0
	.db #0x00	; 0
	.db #0x00	; 0
	.db #0x00	; 0
	.db #0x00	; 0
	.db #0x01	; 1
	.db #0x00	; 0
	.db #0x1f	; 31
	.db #0x0f	; 15
	.db #0x3e	; 62
	.db #0x1e	; 30
	.db #0x3e	; 62
	.db #0x3c	; 60
	.db #0x7c	; 124
	.db #0x3c	; 60
	.db #0x7c	; 124
	.db #0x7c	; 124
	.db #0xfe	; 254
	.db #0x7e	; 126
	.db #0xfe	; 254
	.db #0xfe	; 254
	.db #0xee	; 238
	.db #0xc6	; 198
	.db #0x80	; 128
	.db #0x00	; 0
	.db #0x00	; 0
	.db #0x00	; 0
	.db #0x00	; 0
	.db #0x00	; 0
	.db #0x00	; 0
	.db #0x00	; 0
	.db #0x00	; 0
	.db #0x00	; 0
	.db #0x00	; 0
	.db #0x00	; 0
	.db #0x00	; 0
	.db #0x00	; 0
	.db #0x00	; 0
	.db #0x00	; 0
	.db #0x1f	; 31
	.db #0x0e	; 14
	.db #0x3e	; 62
	.db #0x3c	; 60
	.db #0x3c	; 60
	.db #0x3c	; 60
	.db #0x7c	; 124
	.db #0x3c	; 60
	.db #0x7c	; 124
	.db #0x3c	; 60
	.db #0x7e	; 126
	.db #0x7c	; 124
	.db #0xfe	; 254
	.db #0x7e	; 126
	.db #0xfe	; 254
	.db #0xce	; 206
	.db #0x1f	; 31
	.db #0x1e	; 30
	.db #0x3e	; 62
	.db #0x3c	; 60
	.db #0x3c	; 60
	.db #0x38	; 56	'8'
	.db #0x3c	; 60
	.db #0x3c	; 60
	.db #0x7c	; 124
	.db #0x3c	; 60
	.db #0x7c	; 124
	.db #0x3c	; 60
	.db #0x7e	; 126
	.db #0x7c	; 124
	.db #0x7e	; 126
	.db #0x7c	; 124
	.db #0x3e	; 62
	.db #0x1e	; 30
	.db #0x3e	; 62
	.db #0x3c	; 60
	.db #0x3c	; 60
	.db #0x38	; 56	'8'
	.db #0x3c	; 60
	.db #0x38	; 56	'8'
	.db #0x3c	; 60
	.db #0x3c	; 60
	.db #0x3c	; 60
	.db #0x3c	; 60
	.db #0x3c	; 60
	.db #0x3c	; 60
	.db #0x7c	; 124
	.db #0x3c	; 60
	.db #0x3e	; 62
	.db #0x1c	; 28
	.db #0x3e	; 62
	.db #0x3c	; 60
	.db #0x3c	; 60
	.db #0x38	; 56	'8'
	.db #0x3c	; 60
	.db #0x18	; 24
	.db #0x3c	; 60
	.db #0x18	; 24
	.db #0x3c	; 60
	.db #0x18	; 24
	.db #0x3c	; 60
	.db #0x18	; 24
	.db #0x7c	; 124
	.db #0x38	; 56	'8'
	.db #0x03	; 3
	.db #0x03	; 3
	.db #0x07	; 7
	.db #0x07	; 7
	.db #0x0e	; 14
	.db #0x0c	; 12
	.db #0x1c	; 28
	.db #0x08	; 8
	.db #0x38	; 56	'8'
	.db #0x10	; 16
	.db #0x70	; 112	'p'
	.db #0x20	; 32
	.db #0x70	; 112	'p'
	.db #0x20	; 32
	.db #0x70	; 112	'p'
	.db #0x20	; 32
	.db #0xc6	; 198
	.db #0x86	; 134
	.db #0x8e	; 142
	.db #0x06	; 6
	.db #0x1c	; 28
	.db #0x0c	; 12
	.db #0x1c	; 28
	.db #0x18	; 24
	.db #0x38	; 56	'8'
	.db #0x10	; 16
	.db #0x30	; 48	'0'
	.db #0x20	; 32
	.db #0x70	; 112	'p'
	.db #0x20	; 32
	.db #0x7c	; 124
	.db #0x38	; 56	'8'
	.db #0x03	; 3
	.db #0x01	; 1
	.db #0x07	; 7
	.db #0x03	; 3
	.db #0x0f	; 15
	.db #0x06	; 6
	.db #0x1c	; 28
	.db #0x08	; 8
	.db #0x38	; 56	'8'
	.db #0x30	; 48	'0'
	.db #0x70	; 112	'p'
	.db #0x20	; 32
	.db #0x70	; 112	'p'
	.db #0x20	; 32
	.db #0x60	; 96
	.db #0x20	; 32
	.db #0xce	; 206
	.db #0xc6	; 198
	.db #0x8e	; 142
	.db #0x0c	; 12
	.db #0x1c	; 28
	.db #0x18	; 24
	.db #0x38	; 56	'8'
	.db #0x10	; 16
	.db #0x30	; 48	'0'
	.db #0x30	; 48	'0'
	.db #0x70	; 112	'p'
	.db #0x20	; 32
	.db #0x70	; 112	'p'
	.db #0x60	; 96
	.db #0x78	; 120	'x'
	.db #0x70	; 112	'p'
	.db #0x01	; 1
	.db #0x01	; 1
	.db #0x03	; 3
	.db #0x03	; 3
	.db #0x07	; 7
	.db #0x06	; 6
	.db #0x1e	; 30
	.db #0x0c	; 12
	.db #0x38	; 56	'8'
	.db #0x30	; 48	'0'
	.db #0x30	; 48	'0'
	.db #0x30	; 48	'0'
	.db #0x30	; 48	'0'
	.db #0x20	; 32
	.db #0x30	; 48	'0'
	.db #0x20	; 32
	.db #0xfe	; 254
	.db #0xfc	; 252
	.db #0xfc	; 252
	.db #0xfc	; 252
	.db #0xb8	; 184
	.db #0x18	; 24
	.db #0x38	; 56	'8'
	.db #0x30	; 48	'0'
	.db #0x70	; 112	'p'
	.db #0x20	; 32
	.db #0x60	; 96
	.db #0x00	; 0
	.db #0x60	; 96
	.db #0x60	; 96
	.db #0xf8	; 248
	.db #0x70	; 112	'p'
	.db #0x01	; 1
	.db #0x00	; 0
	.db #0x03	; 3
	.db #0x03	; 3
	.db #0x07	; 7
	.db #0x06	; 6
	.db #0x1e	; 30
	.db #0x18	; 24
	.db #0x18	; 24
	.db #0x10	; 16
	.db #0x18	; 24
	.db #0x10	; 16
	.db #0x10	; 16
	.db #0x00	; 0
	.db #0x30	; 48	'0'
	.db #0x10	; 16
	.db #0xfc	; 252
	.db #0xfc	; 252
	.db #0xfc	; 252
	.db #0xf8	; 248
	.db #0xf8	; 248
	.db #0x70	; 112	'p'
	.db #0x70	; 112	'p'
	.db #0x20	; 32
	.db #0x60	; 96
	.db #0x20	; 32
	.db #0x60	; 96
	.db #0x40	; 64
	.db #0xe0	; 224
	.db #0x40	; 64
	.db #0xf8	; 248
	.db #0xe0	; 224
	.db #0x01	; 1
	.db #0x00	; 0
	.db #0x03	; 3
	.db #0x01	; 1
	.db #0x0f	; 15
	.db #0x0e	; 14
	.db #0x0c	; 12
	.db #0x08	; 8
	.db #0x1c	; 28
	.db #0x08	; 8
	.db #0x18	; 24
	.db #0x00	; 0
	.db #0x00	; 0
	.db #0x00	; 0
	.db #0x01	; 1
	.db #0x00	; 0
	.db #0xf8	; 248
	.db #0xf8	; 248
	.db #0xf8	; 248
	.db #0xf0	; 240
	.db #0xf0	; 240
	.db #0x60	; 96
	.db #0x70	; 112	'p'
	.db #0x60	; 96
	.db #0x60	; 96
	.db #0x40	; 64
	.db #0xc0	; 192
	.db #0x40	; 64
	.db #0xc0	; 192
	.db #0xc0	; 192
	.db #0xf0	; 240
	.db #0xe0	; 224
	.db #0x00	; 0
	.db #0x00	; 0
	.db #0x00	; 0
	.db #0x00	; 0
	.db #0x03	; 3
	.db #0x01	; 1
	.db #0x07	; 7
	.db #0x03	; 3
	.db #0x0f	; 15
	.db #0x07	; 7
	.db #0x0f	; 15
	.db #0x07	; 7
	.db #0x0f	; 15
	.db #0x0f	; 15
	.db #0x1f	; 31
	.db #0x0f	; 15
	.db #0x38	; 56	'8'
	.db #0x38	; 56	'8'
	.db #0xf8	; 248
	.db #0x38	; 56	'8'
	.db #0xf8	; 248
	.db #0xf0	; 240
	.db #0xf0	; 240
	.db #0xe0	; 224
	.db #0xe0	; 224
	.db #0xc0	; 192
	.db #0xe0	; 224
	.db #0xc0	; 192
	.db #0xe0	; 224
	.db #0xc0	; 192
	.db #0xc0	; 192
	.db #0x00	; 0
	.db #0x00	; 0
	.db #0x00	; 0
	.db #0x01	; 1
	.db #0x00	; 0
	.db #0x03	; 3
	.db #0x01	; 1
	.db #0x07	; 7
	.db #0x07	; 7
	.db #0x0f	; 15
	.db #0x0f	; 15
	.db #0x0f	; 15
	.db #0x0f	; 15
	.db #0x0f	; 15
	.db #0x0f	; 15
	.db #0x1f	; 31
	.db #0x0f	; 15
	.db #0x78	; 120	'x'
	.db #0x38	; 56	'8'
	.db #0xf8	; 248
	.db #0x70	; 112	'p'
	.db #0xf8	; 248
	.db #0xf0	; 240
	.db #0xf0	; 240
	.db #0xc0	; 192
	.db #0xc0	; 192
	.db #0xc0	; 192
	.db #0xc0	; 192
	.db #0xc0	; 192
	.db #0xe0	; 224
	.db #0xc0	; 192
	.db #0x80	; 128
	.db #0x00	; 0
	.db #0x78	; 120	'x'
	.db #0x38	; 56	'8'
	.db #0xf8	; 248
	.db #0x70	; 112	'p'
	.db #0xf0	; 240
	.db #0xf0	; 240
	.db #0xe0	; 224
	.db #0xc0	; 192
	.db #0xc0	; 192
	.db #0xc0	; 192
	.db #0xc0	; 192
	.db #0xc0	; 192
	.db #0xc0	; 192
	.db #0xc0	; 192
	.db #0x80	; 128
	.db #0x00	; 0
	.db #0x00	; 0
	.db #0x00	; 0
	.db #0x01	; 1
	.db #0x00	; 0
	.db #0x03	; 3
	.db #0x03	; 3
	.db #0x07	; 7
	.db #0x07	; 7
	.db #0x0f	; 15
	.db #0x0f	; 15
	.db #0x0f	; 15
	.db #0x0f	; 15
	.db #0x0f	; 15
	.db #0x0f	; 15
	.db #0x1f	; 31
	.db #0x0f	; 15
	.db #0x78	; 120	'x'
	.db #0x30	; 48	'0'
	.db #0xf8	; 248
	.db #0x70	; 112	'p'
	.db #0xf0	; 240
	.db #0xe0	; 224
	.db #0xe0	; 224
	.db #0xc0	; 192
	.db #0xc0	; 192
	.db #0xc0	; 192
	.db #0xc0	; 192
	.db #0xc0	; 192
	.db #0xc0	; 192
	.db #0xc0	; 192
	.db #0x80	; 128
	.db #0x00	; 0
	.db #0x00	; 0
	.db #0x00	; 0
	.db #0x00	; 0
	.db #0x00	; 0
	.db #0x03	; 3
	.db #0x03	; 3
	.db #0x07	; 7
	.db #0x07	; 7
	.db #0x0f	; 15
	.db #0x0f	; 15
	.db #0x0f	; 15
	.db #0x0f	; 15
	.db #0x1f	; 31
	.db #0x0f	; 15
	.db #0x1f	; 31
	.db #0x0f	; 15
	.db #0x78	; 120	'x'
	.db #0x30	; 48	'0'
	.db #0xf8	; 248
	.db #0x70	; 112	'p'
	.db #0xf0	; 240
	.db #0xe0	; 224
	.db #0xe0	; 224
	.db #0xc0	; 192
	.db #0xc0	; 192
	.db #0xc0	; 192
	.db #0xc0	; 192
	.db #0xc0	; 192
	.db #0xc0	; 192
	.db #0x80	; 128
	.db #0x80	; 128
	.db #0x00	; 0
	.db #0x3e	; 62
	.db #0x1c	; 28
	.db #0x3e	; 62
	.db #0x3c	; 60
	.db #0x3c	; 60
	.db #0x3c	; 60
	.db #0x3c	; 60
	.db #0x1c	; 28
	.db #0x3c	; 60
	.db #0x1c	; 28
	.db #0x3e	; 62
	.db #0x1c	; 28
	.db #0x3e	; 62
	.db #0x1c	; 28
	.db #0x7c	; 124
	.db #0x3c	; 60
	.db #0x3e	; 62
	.db #0x1c	; 28
	.db #0x3c	; 60
	.db #0x3c	; 60
	.db #0x3c	; 60
	.db #0x3c	; 60
	.db #0x3c	; 60
	.db #0x1c	; 28
	.db #0x3e	; 62
	.db #0x1c	; 28
	.db #0x3e	; 62
	.db #0x1e	; 30
	.db #0x3e	; 62
	.db #0x1e	; 30
	.db #0x7e	; 126
	.db #0x3c	; 60
	.db #0x3e	; 62
	.db #0x1c	; 28
	.db #0x3c	; 60
	.db #0x3c	; 60
	.db #0x3e	; 62
	.db #0x3c	; 60
	.db #0x3e	; 62
	.db #0x3e	; 62
	.db #0x3f	; 63
	.db #0x3e	; 62
	.db #0x3f	; 63
	.db #0x3f	; 63
	.db #0x3f	; 63
	.db #0x3e	; 62
	.db #0x7e	; 126
	.db #0x3c	; 60
	.db #0x3e	; 62
	.db #0x1c	; 28
	.db #0x3e	; 62
	.db #0x3c	; 60
	.db #0x3e	; 62
	.db #0x3c	; 60
	.db #0x3f	; 63
	.db #0x3e	; 62
	.db #0x3f	; 63
	.db #0x3f	; 63
	.db #0x3f	; 63
	.db #0x3f	; 63
	.db #0x3f	; 63
	.db #0x3f	; 63
	.db #0x3e	; 62
	.db #0x3c	; 60
	.db #0x00	; 0
	.db #0x00	; 0
	.db #0x00	; 0
	.db #0x00	; 0
	.db #0x00	; 0
	.db #0x00	; 0
	.db #0x00	; 0
	.db #0x00	; 0
	.db #0x00	; 0
	.db #0x00	; 0
	.db #0x80	; 128
	.db #0x00	; 0
	.db #0x80	; 128
	.db #0x00	; 0
	.db #0x00	; 0
	.db #0x00	; 0
	.db #0x3e	; 62
	.db #0x1c	; 28
	.db #0x3e	; 62
	.db #0x3c	; 60
	.db #0x3e	; 62
	.db #0x3e	; 62
	.db #0x3f	; 63
	.db #0x3f	; 63
	.db #0x3f	; 63
	.db #0x3f	; 63
	.db #0x3f	; 63
	.db #0x3f	; 63
	.db #0x7f	; 127
	.db #0x3f	; 63
	.db #0x7f	; 127
	.db #0x3c	; 60
	.db #0x00	; 0
	.db #0x00	; 0
	.db #0x00	; 0
	.db #0x00	; 0
	.db #0x00	; 0
	.db #0x00	; 0
	.db #0x00	; 0
	.db #0x00	; 0
	.db #0x80	; 128
	.db #0x80	; 128
	.db #0x80	; 128
	.db #0x80	; 128
	.db #0x80	; 128
	.db #0x00	; 0
	.db #0x00	; 0
	.db #0x00	; 0
	.db #0x00	; 0
	.db #0x00	; 0
	.db #0x07	; 7
	.db #0x03	; 3
	.db #0x07	; 7
	.db #0x06	; 6
	.db #0x0e	; 14
	.db #0x04	; 4
	.db #0x0c	; 12
	.db #0x00	; 0
	.db #0x00	; 0
	.db #0x00	; 0
	.db #0x01	; 1
	.db #0x00	; 0
	.db #0x01	; 1
	.db #0x00	; 0
	.db #0xfc	; 252
	.db #0xf8	; 248
	.db #0xf0	; 240
	.db #0xf0	; 240
	.db #0xf0	; 240
	.db #0xe0	; 224
	.db #0xe0	; 224
	.db #0x40	; 64
	.db #0xc0	; 192
	.db #0x40	; 64
	.db #0xc0	; 192
	.db #0x80	; 128
	.db #0xc0	; 192
	.db #0x80	; 128
	.db #0xf0	; 240
	.db #0xe0	; 224
	.db #0x01	; 1
	.db #0x00	; 0
	.db #0x03	; 3
	.db #0x03	; 3
	.db #0x07	; 7
	.db #0x03	; 3
	.db #0x07	; 7
	.db #0x02	; 2
	.db #0x05	; 5
	.db #0x00	; 0
	.db #0x01	; 1
	.db #0x00	; 0
	.db #0x01	; 1
	.db #0x00	; 0
	.db #0x01	; 1
	.db #0x01	; 1
	.db #0xf8	; 248
	.db #0xf0	; 240
	.db #0xf0	; 240
	.db #0xe0	; 224
	.db #0xe0	; 224
	.db #0xc0	; 192
	.db #0xe0	; 224
	.db #0xc0	; 192
	.db #0xc0	; 192
	.db #0x80	; 128
	.db #0xc0	; 192
	.db #0x80	; 128
	.db #0x80	; 128
	.db #0x80	; 128
	.db #0xe0	; 224
	.db #0xc0	; 192
	.db #0x01	; 1
	.db #0x00	; 0
	.db #0x01	; 1
	.db #0x01	; 1
	.db #0x01	; 1
	.db #0x01	; 1
	.db #0x01	; 1
	.db #0x01	; 1
	.db #0x01	; 1
	.db #0x01	; 1
	.db #0x01	; 1
	.db #0x00	; 0
	.db #0x01	; 1
	.db #0x01	; 1
	.db #0x03	; 3
	.db #0x01	; 1
	.db #0xf8	; 248
	.db #0xf0	; 240
	.db #0xf0	; 240
	.db #0xe0	; 224
	.db #0xe0	; 224
	.db #0xc0	; 192
	.db #0xc0	; 192
	.db #0xc0	; 192
	.db #0xc0	; 192
	.db #0x80	; 128
	.db #0x80	; 128
	.db #0x00	; 0
	.db #0x80	; 128
	.db #0x80	; 128
	.db #0xe0	; 224
	.db #0xc0	; 192
	.db #0x00	; 0
	.db #0x00	; 0
	.db #0x00	; 0
	.db #0x00	; 0
	.db #0x00	; 0
	.db #0x00	; 0
	.db #0x01	; 1
	.db #0x00	; 0
	.db #0x01	; 1
	.db #0x00	; 0
	.db #0x01	; 1
	.db #0x01	; 1
	.db #0x03	; 3
	.db #0x01	; 1
	.db #0x03	; 3
	.db #0x03	; 3
	.db #0xf8	; 248
	.db #0x70	; 112	'p'
	.db #0xf0	; 240
	.db #0xe0	; 224
	.db #0xe0	; 224
	.db #0xc0	; 192
	.db #0xc0	; 192
	.db #0x80	; 128
	.db #0x80	; 128
	.db #0x80	; 128
	.db #0x80	; 128
	.db #0x00	; 0
	.db #0x80	; 128
	.db #0x00	; 0
	.db #0xe0	; 224
	.db #0x80	; 128
	.db #0x00	; 0
	.db #0x00	; 0
	.db #0x00	; 0
	.db #0x00	; 0
	.db #0x00	; 0
	.db #0x00	; 0
	.db #0x01	; 1
	.db #0x00	; 0
	.db #0x01	; 1
	.db #0x01	; 1
	.db #0x03	; 3
	.db #0x01	; 1
	.db #0x03	; 3
	.db #0x03	; 3
	.db #0x07	; 7
	.db #0x03	; 3
	.db #0x7c	; 124
	.db #0x30	; 48	'0'
	.db #0xf0	; 240
	.db #0x60	; 96
	.db #0xe0	; 224
	.db #0xe0	; 224
	.db #0xe0	; 224
	.db #0xc0	; 192
	.db #0xe0	; 224
	.db #0xc0	; 192
	.db #0x00	; 0
	.db #0x00	; 0
	.db #0x00	; 0
	.db #0x00	; 0
	.db #0xc0	; 192
	.db #0x80	; 128
	.db #0x00	; 0
	.db #0x00	; 0
	.db #0x00	; 0
	.db #0x00	; 0
	.db #0x03	; 3
	.db #0x01	; 1
	.db #0x07	; 7
	.db #0x07	; 7
	.db #0x0f	; 15
	.db #0x0f	; 15
	.db #0x0f	; 15
	.db #0x0f	; 15
	.db #0x1f	; 31
	.db #0x0f	; 15
	.db #0x1f	; 31
	.db #0x0f	; 15
	.db #0x78	; 120	'x'
	.db #0x30	; 48	'0'
	.db #0xf8	; 248
	.db #0x70	; 112	'p'
	.db #0xf0	; 240
	.db #0xe0	; 224
	.db #0xe0	; 224
	.db #0xc0	; 192
	.db #0xc0	; 192
	.db #0x80	; 128
	.db #0xc0	; 192
	.db #0xc0	; 192
	.db #0xc0	; 192
	.db #0x80	; 128
	.db #0x80	; 128
	.db #0x00	; 0
	.db #0x00	; 0
	.db #0x00	; 0
	.db #0x00	; 0
	.db #0x00	; 0
	.db #0x03	; 3
	.db #0x01	; 1
	.db #0x07	; 7
	.db #0x03	; 3
	.db #0x0f	; 15
	.db #0x0f	; 15
	.db #0x0f	; 15
	.db #0x0f	; 15
	.db #0x1f	; 31
	.db #0x0f	; 15
	.db #0x1f	; 31
	.db #0x0e	; 14
	.db #0x70	; 112	'p'
	.db #0x30	; 48	'0'
	.db #0xf8	; 248
	.db #0x70	; 112	'p'
	.db #0xf0	; 240
	.db #0xf0	; 240
	.db #0xe0	; 224
	.db #0xe0	; 224
	.db #0xc0	; 192
	.db #0xc0	; 192
	.db #0xc0	; 192
	.db #0xc0	; 192
	.db #0xc0	; 192
	.db #0x80	; 128
	.db #0x80	; 128
	.db #0x00	; 0
	.db #0x00	; 0
	.db #0x00	; 0
	.db #0x00	; 0
	.db #0x00	; 0
	.db #0x03	; 3
	.db #0x01	; 1
	.db #0x07	; 7
	.db #0x03	; 3
	.db #0x0f	; 15
	.db #0x0f	; 15
	.db #0x0f	; 15
	.db #0x0f	; 15
	.db #0x1f	; 31
	.db #0x0f	; 15
	.db #0x1f	; 31
	.db #0x1e	; 30
	.db #0x70	; 112	'p'
	.db #0x30	; 48	'0'
	.db #0x78	; 120	'x'
	.db #0x70	; 112	'p'
	.db #0xf0	; 240
	.db #0xf0	; 240
	.db #0xf0	; 240
	.db #0xe0	; 224
	.db #0xc0	; 192
	.db #0x80	; 128
	.db #0xc0	; 192
	.db #0xc0	; 192
	.db #0xc0	; 192
	.db #0x80	; 128
	.db #0x00	; 0
	.db #0x00	; 0
	.db #0x00	; 0
	.db #0x00	; 0
	.db #0x00	; 0
	.db #0x00	; 0
	.db #0x03	; 3
	.db #0x01	; 1
	.db #0x07	; 7
	.db #0x03	; 3
	.db #0x0f	; 15
	.db #0x0f	; 15
	.db #0x1f	; 31
	.db #0x0f	; 15
	.db #0x1f	; 31
	.db #0x0f	; 15
	.db #0x1f	; 31
	.db #0x1e	; 30
	.db #0x70	; 112	'p'
	.db #0x30	; 48	'0'
	.db #0xf8	; 248
	.db #0x70	; 112	'p'
	.db #0xf0	; 240
	.db #0xe0	; 224
	.db #0xe0	; 224
	.db #0xe0	; 224
	.db #0xc0	; 192
	.db #0x80	; 128
	.db #0xc0	; 192
	.db #0x80	; 128
	.db #0xc0	; 192
	.db #0x80	; 128
	.db #0x00	; 0
	.db #0x00	; 0
	.db #0x00	; 0
	.db #0x00	; 0
	.db #0x00	; 0
	.db #0x00	; 0
	.db #0x03	; 3
	.db #0x00	; 0
	.db #0x07	; 7
	.db #0x03	; 3
	.db #0x0f	; 15
	.db #0x07	; 7
	.db #0x1f	; 31
	.db #0x0f	; 15
	.db #0x1f	; 31
	.db #0x0f	; 15
	.db #0x1f	; 31
	.db #0x1e	; 30
	.db #0x70	; 112	'p'
	.db #0x30	; 48	'0'
	.db #0x70	; 112	'p'
	.db #0x70	; 112	'p'
	.db #0xf0	; 240
	.db #0xf0	; 240
	.db #0xf0	; 240
	.db #0xe0	; 224
	.db #0xc0	; 192
	.db #0x80	; 128
	.db #0xc0	; 192
	.db #0x80	; 128
	.db #0xc0	; 192
	.db #0x80	; 128
	.db #0x80	; 128
	.db #0x00	; 0
	.db #0x3e	; 62
	.db #0x1c	; 28
	.db #0x3e	; 62
	.db #0x3c	; 60
	.db #0x3f	; 63
	.db #0x3e	; 62
	.db #0x3f	; 63
	.db #0x3f	; 63
	.db #0x3f	; 63
	.db #0x3f	; 63
	.db #0x7f	; 127
	.db #0x33	; 51	'3'
	.db #0x7f	; 127
	.db #0x33	; 51	'3'
	.db #0x7f	; 127
	.db #0x3e	; 62
	.db #0x00	; 0
	.db #0x00	; 0
	.db #0x00	; 0
	.db #0x00	; 0
	.db #0x00	; 0
	.db #0x00	; 0
	.db #0x80	; 128
	.db #0x00	; 0
	.db #0x80	; 128
	.db #0x80	; 128
	.db #0xc0	; 192
	.db #0x80	; 128
	.db #0x80	; 128
	.db #0x80	; 128
	.db #0x00	; 0
	.db #0x00	; 0
	.db #0x3e	; 62
	.db #0x1c	; 28
	.db #0x3e	; 62
	.db #0x3c	; 60
	.db #0x7e	; 126
	.db #0x3e	; 62
	.db #0x7f	; 127
	.db #0x3f	; 63
	.db #0x7f	; 127
	.db #0x3f	; 63
	.db #0x7b	; 123
	.db #0x31	; 49	'1'
	.db #0x73	; 115	's'
	.db #0x71	; 113	'q'
	.db #0x73	; 115	's'
	.db #0x63	; 99	'c'
	.db #0x00	; 0
	.db #0x00	; 0
	.db #0x00	; 0
	.db #0x00	; 0
	.db #0x00	; 0
	.db #0x00	; 0
	.db #0x80	; 128
	.db #0x00	; 0
	.db #0x80	; 128
	.db #0x80	; 128
	.db #0xc0	; 192
	.db #0xc0	; 192
	.db #0xc0	; 192
	.db #0x80	; 128
	.db #0x80	; 128
	.db #0x00	; 0
	.db #0x3e	; 62
	.db #0x1c	; 28
	.db #0x3c	; 60
	.db #0x3c	; 60
	.db #0x7e	; 126
	.db #0x3c	; 60
	.db #0x7f	; 127
	.db #0x3e	; 62
	.db #0x7f	; 127
	.db #0x3f	; 63
	.db #0x7f	; 127
	.db #0x73	; 115	's'
	.db #0x73	; 115	's'
	.db #0x61	; 97	'a'
	.db #0xf3	; 243
	.db #0x61	; 97	'a'
	.db #0x00	; 0
	.db #0x00	; 0
	.db #0x00	; 0
	.db #0x00	; 0
	.db #0x00	; 0
	.db #0x00	; 0
	.db #0x00	; 0
	.db #0x00	; 0
	.db #0x80	; 128
	.db #0x00	; 0
	.db #0x80	; 128
	.db #0x80	; 128
	.db #0x80	; 128
	.db #0x80	; 128
	.db #0x80	; 128
	.db #0x80	; 128
	.db #0x3e	; 62
	.db #0x1c	; 28
	.db #0x7c	; 124
	.db #0x38	; 56	'8'
	.db #0x7c	; 124
	.db #0x3c	; 60
	.db #0x7e	; 126
	.db #0x3e	; 62
	.db #0x7f	; 127
	.db #0x7e	; 126
	.db #0x7f	; 127
	.db #0x77	; 119	'w'
	.db #0xf7	; 247
	.db #0x63	; 99	'c'
	.db #0xe3	; 227
	.db #0x61	; 97	'a'
	.db #0x00	; 0
	.db #0x00	; 0
	.db #0x00	; 0
	.db #0x00	; 0
	.db #0x00	; 0
	.db #0x00	; 0
	.db #0x00	; 0
	.db #0x00	; 0
	.db #0x00	; 0
	.db #0x00	; 0
	.db #0x80	; 128
	.db #0x00	; 0
	.db #0x80	; 128
	.db #0x80	; 128
	.db #0x80	; 128
	.db #0x00	; 0
	.db #0x3e	; 62
	.db #0x1c	; 28
	.db #0x7c	; 124
	.db #0x38	; 56	'8'
	.db #0x7c	; 124
	.db #0x78	; 120	'x'
	.db #0x7e	; 126
	.db #0x7c	; 124
	.db #0x7e	; 126
	.db #0x7e	; 126
	.db #0xff	; 255
	.db #0x7f	; 127
	.db #0xf7	; 247
	.db #0x67	; 103	'g'
	.db #0xe3	; 227
	.db #0xc3	; 195
	.db #0x00	; 0
	.db #0x00	; 0
	.db #0x00	; 0
	.db #0x00	; 0
	.db #0x00	; 0
	.db #0x00	; 0
	.db #0x00	; 0
	.db #0x00	; 0
	.db #0x00	; 0
	.db #0x00	; 0
	.db #0x00	; 0
	.db #0x00	; 0
	.db #0x80	; 128
	.db #0x00	; 0
	.db #0x80	; 128
	.db #0x00	; 0
	.db #0x00	; 0
	.db #0x00	; 0
	.db #0x00	; 0
	.db #0x00	; 0
	.db #0x01	; 1
	.db #0x00	; 0
	.db #0x01	; 1
	.db #0x01	; 1
	.db #0x03	; 3
	.db #0x01	; 1
	.db #0x03	; 3
	.db #0x02	; 2
	.db #0x07	; 7
	.db #0x02	; 2
	.db #0x07	; 7
	.db #0x03	; 3
	.db #0x7e	; 126
	.db #0x7c	; 124
	.db #0xf8	; 248
	.db #0xf8	; 248
	.db #0xf8	; 248
	.db #0xf0	; 240
	.db #0xf0	; 240
	.db #0xb0	; 176
	.db #0x90	; 144
	.db #0x10	; 16
	.db #0x18	; 24
	.db #0x00	; 0
	.db #0x00	; 0
	.db #0x00	; 0
	.db #0xc0	; 192
	.db #0x80	; 128
	.db #0x00	; 0
	.db #0x00	; 0
	.db #0x01	; 1
	.db #0x00	; 0
	.db #0x01	; 1
	.db #0x01	; 1
	.db #0x03	; 3
	.db #0x01	; 1
	.db #0x03	; 3
	.db #0x03	; 3
	.db #0x03	; 3
	.db #0x02	; 2
	.db #0x07	; 7
	.db #0x02	; 2
	.db #0x07	; 7
	.db #0x07	; 7
	.db #0xe7	; 231
	.db #0x62	; 98	'b'
	.db #0xe6	; 230
	.db #0xc6	; 198
	.db #0xc6	; 198
	.db #0x84	; 132
	.db #0x8c	; 140
	.db #0x0c	; 12
	.db #0x1c	; 28
	.db #0x0c	; 12
	.db #0x0e	; 14
	.db #0x04	; 4
	.db #0x06	; 6
	.db #0x00	; 0
	.db #0xc2	; 194
	.db #0x00	; 0
	.db #0x00	; 0
	.db #0x00	; 0
	.db #0x01	; 1
	.db #0x00	; 0
	.db #0x03	; 3
	.db #0x01	; 1
	.db #0x03	; 3
	.db #0x03	; 3
	.db #0x03	; 3
	.db #0x02	; 2
	.db #0x06	; 6
	.db #0x00	; 0
	.db #0x06	; 6
	.db #0x06	; 6
	.db #0x0f	; 15
	.db #0x07	; 7
	.db #0xe3	; 227
	.db #0x43	; 67	'C'
	.db #0xc3	; 195
	.db #0xc2	; 194
	.db #0x87	; 135
	.db #0x82	; 130
	.db #0x86	; 134
	.db #0x02	; 2
	.db #0x06	; 6
	.db #0x02	; 2
	.db #0x06	; 6
	.db #0x06	; 6
	.db #0x07	; 7
	.db #0x07	; 7
	.db #0x87	; 135
	.db #0x03	; 3
	.db #0x80	; 128
	.db #0x00	; 0
	.db #0x00	; 0
	.db #0x00	; 0
	.db #0x00	; 0
	.db #0x00	; 0
	.db #0x00	; 0
	.db #0x00	; 0
	.db #0x00	; 0
	.db #0x00	; 0
	.db #0x00	; 0
	.db #0x00	; 0
	.db #0x00	; 0
	.db #0x00	; 0
	.db #0x80	; 128
	.db #0x00	; 0
	.db #0x00	; 0
	.db #0x00	; 0
	.db #0x01	; 1
	.db #0x01	; 1
	.db #0x03	; 3
	.db #0x01	; 1
	.db #0x03	; 3
	.db #0x03	; 3
	.db #0x07	; 7
	.db #0x02	; 2
	.db #0x06	; 6
	.db #0x04	; 4
	.db #0x0e	; 14
	.db #0x04	; 4
	.db #0x0f	; 15
	.db #0x07	; 7
	.db #0xe3	; 227
	.db #0xc3	; 195
	.db #0xc7	; 199
	.db #0x82	; 130
	.db #0x87	; 135
	.db #0x02	; 2
	.db #0x06	; 6
	.db #0x02	; 2
	.db #0x06	; 6
	.db #0x00	; 0
	.db #0x06	; 6
	.db #0x04	; 4
	.db #0x0e	; 14
	.db #0x06	; 6
	.db #0x8f	; 143
	.db #0x07	; 7
	.db #0x00	; 0
	.db #0x00	; 0
	.db #0x01	; 1
	.db #0x01	; 1
	.db #0x03	; 3
	.db #0x03	; 3
	.db #0x07	; 7
	.db #0x02	; 2
	.db #0x06	; 6
	.db #0x06	; 6
	.db #0x0e	; 14
	.db #0x04	; 4
	.db #0x0c	; 12
	.db #0x0c	; 12
	.db #0x0f	; 15
	.db #0x0e	; 14
	.db #0xe3	; 227
	.db #0xc3	; 195
	.db #0xc7	; 199
	.db #0x82	; 130
	.db #0x87	; 135
	.db #0x06	; 6
	.db #0x06	; 6
	.db #0x04	; 4
	.db #0x06	; 6
	.db #0x04	; 4
	.db #0x0c	; 12
	.db #0x04	; 4
	.db #0x0e	; 14
	.db #0x04	; 4
	.db #0x0f	; 15
	.db #0x0e	; 14
	.db #0x00	; 0
	.db #0x00	; 0
	.db #0x00	; 0
	.db #0x00	; 0
	.db #0x01	; 1
	.db #0x00	; 0
	.db #0x03	; 3
	.db #0x03	; 3
	.db #0x07	; 7
	.db #0x07	; 7
	.db #0x0f	; 15
	.db #0x0f	; 15
	.db #0x1f	; 31
	.db #0x0f	; 15
	.db #0x1f	; 31
	.db #0x1f	; 31
	.db #0x70	; 112	'p'
	.db #0x20	; 32
	.db #0x70	; 112	'p'
	.db #0x70	; 112	'p'
	.db #0xf0	; 240
	.db #0xf0	; 240
	.db #0xf0	; 240
	.db #0xe0	; 224
	.db #0xe0	; 224
	.db #0xc0	; 192
	.db #0xc0	; 192
	.db #0x80	; 128
	.db #0xc0	; 192
	.db #0x80	; 128
	.db #0x80	; 128
	.db #0x00	; 0
	.db #0x00	; 0
	.db #0x00	; 0
	.db #0x00	; 0
	.db #0x00	; 0
	.db #0x00	; 0
	.db #0x00	; 0
	.db #0x03	; 3
	.db #0x01	; 1
	.db #0x07	; 7
	.db #0x03	; 3
	.db #0x0f	; 15
	.db #0x07	; 7
	.db #0x0f	; 15
	.db #0x0f	; 15
	.db #0x1f	; 31
	.db #0x0f	; 15
	.db #0x30	; 48	'0'
	.db #0x20	; 32
	.db #0x78	; 120	'x'
	.db #0x70	; 112	'p'
	.db #0xf8	; 248
	.db #0x70	; 112	'p'
	.db #0xf0	; 240
	.db #0xe0	; 224
	.db #0xe0	; 224
	.db #0xc0	; 192
	.db #0xc0	; 192
	.db #0xc0	; 192
	.db #0xc0	; 192
	.db #0x80	; 128
	.db #0xc0	; 192
	.db #0x80	; 128
	.db #0x30	; 48	'0'
	.db #0x00	; 0
	.db #0x78	; 120	'x'
	.db #0x30	; 48	'0'
	.db #0xf8	; 248
	.db #0x70	; 112	'p'
	.db #0xf0	; 240
	.db #0xf0	; 240
	.db #0xe0	; 224
	.db #0xc0	; 192
	.db #0xc0	; 192
	.db #0xc0	; 192
	.db #0xc0	; 192
	.db #0x80	; 128
	.db #0xc0	; 192
	.db #0x80	; 128
	.db #0x00	; 0
	.db #0x00	; 0
	.db #0x00	; 0
	.db #0x00	; 0
	.db #0x00	; 0
	.db #0x00	; 0
	.db #0x03	; 3
	.db #0x01	; 1
	.db #0x07	; 7
	.db #0x03	; 3
	.db #0x07	; 7
	.db #0x07	; 7
	.db #0x0f	; 15
	.db #0x0f	; 15
	.db #0x1f	; 31
	.db #0x0f	; 15
	.db #0x30	; 48	'0'
	.db #0x00	; 0
	.db #0x78	; 120	'x'
	.db #0x30	; 48	'0'
	.db #0x78	; 120	'x'
	.db #0x70	; 112	'p'
	.db #0xf8	; 248
	.db #0xf0	; 240
	.db #0xf0	; 240
	.db #0xe0	; 224
	.db #0xc0	; 192
	.db #0xc0	; 192
	.db #0xc0	; 192
	.db #0xc0	; 192
	.db #0xc0	; 192
	.db #0x80	; 128
	.db #0x10	; 16
	.db #0x00	; 0
	.db #0x78	; 120	'x'
	.db #0x38	; 56	'8'
	.db #0x78	; 120	'x'
	.db #0x38	; 56	'8'
	.db #0xf8	; 248
	.db #0xf0	; 240
	.db #0xf0	; 240
	.db #0xe0	; 224
	.db #0xe0	; 224
	.db #0xc0	; 192
	.db #0xc0	; 192
	.db #0xc0	; 192
	.db #0xc0	; 192
	.db #0x80	; 128
	.db #0x3e	; 62
	.db #0x1c	; 28
	.db #0x7c	; 124
	.db #0x38	; 56	'8'
	.db #0x7c	; 124
	.db #0x78	; 120	'x'
	.db #0x7c	; 124
	.db #0x7c	; 124
	.db #0x7e	; 126
	.db #0x7e	; 126
	.db #0xff	; 255
	.db #0x7e	; 126
	.db #0xff	; 255
	.db #0xe7	; 231
	.db #0xe7	; 231
	.db #0xc3	; 195
	.db #0x1f	; 31
	.db #0x1c	; 28
	.db #0x3c	; 60
	.db #0x3c	; 60
	.db #0x7c	; 124
	.db #0x38	; 56	'8'
	.db #0x7c	; 124
	.db #0x7c	; 124
	.db #0x7e	; 126
	.db #0x7c	; 124
	.db #0xfe	; 254
	.db #0x7e	; 126
	.db #0xff	; 255
	.db #0xef	; 239
	.db #0xe7	; 231
	.db #0xc7	; 199
	.db #0x1f	; 31
	.db #0x1c	; 28
	.db #0x3c	; 60
	.db #0x3c	; 60
	.db #0x7c	; 124
	.db #0x38	; 56	'8'
	.db #0x7c	; 124
	.db #0x78	; 120	'x'
	.db #0x7e	; 126
	.db #0x7c	; 124
	.db #0xfe	; 254
	.db #0x7e	; 126
	.db #0xff	; 255
	.db #0xee	; 238
	.db #0xe7	; 231
	.db #0xc7	; 199
	.db #0x1f	; 31
	.db #0x1c	; 28
	.db #0x3e	; 62
	.db #0x3c	; 60
	.db #0x7c	; 124
	.db #0x38	; 56	'8'
	.db #0x7c	; 124
	.db #0x3c	; 60
	.db #0x7e	; 126
	.db #0x7c	; 124
	.db #0xfe	; 254
	.db #0x7e	; 126
	.db #0xff	; 255
	.db #0x7e	; 126
	.db #0xef	; 239
	.db #0xc7	; 199
	.db #0x1f	; 31
	.db #0x1e	; 30
	.db #0x3e	; 62
	.db #0x3c	; 60
	.db #0x7c	; 124
	.db #0x38	; 56	'8'
	.db #0x7c	; 124
	.db #0x38	; 56	'8'
	.db #0x7c	; 124
	.db #0x7c	; 124
	.db #0xfe	; 254
	.db #0x7e	; 126
	.db #0xfe	; 254
	.db #0x7e	; 126
	.db #0xef	; 239
	.db #0xc6	; 198
	.db #0x01	; 1
	.db #0x00	; 0
	.db #0x03	; 3
	.db #0x01	; 1
	.db #0x07	; 7
	.db #0x03	; 3
	.db #0x07	; 7
	.db #0x06	; 6
	.db #0x06	; 6
	.db #0x04	; 4
	.db #0x0c	; 12
	.db #0x00	; 0
	.db #0x0c	; 12
	.db #0x0c	; 12
	.db #0x1f	; 31
	.db #0x0e	; 14
	.db #0xc3	; 195
	.db #0xc3	; 195
	.db #0xc7	; 199
	.db #0x82	; 130
	.db #0x86	; 134
	.db #0x06	; 6
	.db #0x0e	; 14
	.db #0x04	; 4
	.db #0x0c	; 12
	.db #0x04	; 4
	.db #0x0c	; 12
	.db #0x08	; 8
	.db #0x0c	; 12
	.db #0x08	; 8
	.db #0x1f	; 31
	.db #0x0e	; 14
	.db #0x01	; 1
	.db #0x00	; 0
	.db #0x03	; 3
	.db #0x01	; 1
	.db #0x07	; 7
	.db #0x03	; 3
	.db #0x07	; 7
	.db #0x06	; 6
	.db #0x0e	; 14
	.db #0x04	; 4
	.db #0x0c	; 12
	.db #0x08	; 8
	.db #0x1c	; 28
	.db #0x08	; 8
	.db #0x1e	; 30
	.db #0x1c	; 28
	.db #0xc7	; 199
	.db #0xc3	; 195
	.db #0xc7	; 199
	.db #0x82	; 130
	.db #0x8e	; 142
	.db #0x06	; 6
	.db #0x0e	; 14
	.db #0x04	; 4
	.db #0x0c	; 12
	.db #0x08	; 8
	.db #0x1c	; 28
	.db #0x08	; 8
	.db #0x1c	; 28
	.db #0x08	; 8
	.db #0x1e	; 30
	.db #0x1c	; 28
	.db #0x01	; 1
	.db #0x00	; 0
	.db #0x03	; 3
	.db #0x01	; 1
	.db #0x07	; 7
	.db #0x03	; 3
	.db #0x0e	; 14
	.db #0x06	; 6
	.db #0x0e	; 14
	.db #0x04	; 4
	.db #0x1c	; 28
	.db #0x08	; 8
	.db #0x1c	; 28
	.db #0x18	; 24
	.db #0x3e	; 62
	.db #0x1c	; 28
	.db #0xc7	; 199
	.db #0xc3	; 195
	.db #0xc7	; 199
	.db #0x86	; 134
	.db #0x8e	; 142
	.db #0x04	; 4
	.db #0x0e	; 14
	.db #0x0c	; 12
	.db #0x1c	; 28
	.db #0x08	; 8
	.db #0x18	; 24
	.db #0x00	; 0
	.db #0x18	; 24
	.db #0x18	; 24
	.db #0x3e	; 62
	.db #0x1c	; 28
	.db #0x01	; 1
	.db #0x00	; 0
	.db #0x03	; 3
	.db #0x01	; 1
	.db #0x07	; 7
	.db #0x03	; 3
	.db #0x0e	; 14
	.db #0x06	; 6
	.db #0x0c	; 12
	.db #0x0c	; 12
	.db #0x18	; 24
	.db #0x08	; 8
	.db #0x18	; 24
	.db #0x18	; 24
	.db #0x3e	; 62
	.db #0x1c	; 28
	.db #0xe7	; 231
	.db #0xc3	; 195
	.db #0xc7	; 199
	.db #0x86	; 134
	.db #0x8e	; 142
	.db #0x04	; 4
	.db #0x0c	; 12
	.db #0x08	; 8
	.db #0x1c	; 28
	.db #0x08	; 8
	.db #0x18	; 24
	.db #0x10	; 16
	.db #0x38	; 56	'8'
	.db #0x10	; 16
	.db #0x3c	; 60
	.db #0x18	; 24
	.db #0x01	; 1
	.db #0x00	; 0
	.db #0x03	; 3
	.db #0x03	; 3
	.db #0x07	; 7
	.db #0x03	; 3
	.db #0x0e	; 14
	.db #0x04	; 4
	.db #0x0c	; 12
	.db #0x08	; 8
	.db #0x18	; 24
	.db #0x10	; 16
	.db #0x38	; 56	'8'
	.db #0x18	; 24
	.db #0x3c	; 60
	.db #0x3c	; 60
	.db #0xe7	; 231
	.db #0xc6	; 198
	.db #0xcf	; 207
	.db #0x86	; 134
	.db #0x8e	; 142
	.db #0x0c	; 12
	.db #0x1c	; 28
	.db #0x08	; 8
	.db #0x18	; 24
	.db #0x10	; 16
	.db #0x38	; 56	'8'
	.db #0x10	; 16
	.db #0x30	; 48	'0'
	.db #0x30	; 48	'0'
	.db #0x3c	; 60
	.db #0x38	; 56	'8'
_TILESETWALKER_101_125:
	.db #0x00	; 0
	.db #0x00	; 0
	.db #0x00	; 0
	.db #0x00	; 0
	.db #0x00	; 0
	.db #0x00	; 0
	.db #0x00	; 0
	.db #0x00	; 0
	.db #0x00	; 0
	.db #0x00	; 0
	.db #0x00	; 0
	.db #0x00	; 0
	.db #0x00	; 0
	.db #0x00	; 0
	.db #0x00	; 0
	.db #0x00	; 0
	.db #0x00	; 0
	.db #0x00	; 0
	.db #0x00	; 0
	.db #0x00	; 0
	.db #0x00	; 0
	.db #0x00	; 0
	.db #0x03	; 3
	.db #0x01	; 1
	.db #0x07	; 7
	.db #0x03	; 3
	.db #0x0f	; 15
	.db #0x07	; 7
	.db #0x0f	; 15
	.db #0x0f	; 15
	.db #0x1f	; 31
	.db #0x0f	; 15
	.db #0x10	; 16
	.db #0x00	; 0
	.db #0x38	; 56	'8'
	.db #0x38	; 56	'8'
	.db #0x78	; 120	'x'
	.db #0x38	; 56	'8'
	.db #0xf8	; 248
	.db #0xf0	; 240
	.db #0xf0	; 240
	.db #0xe0	; 224
	.db #0xe0	; 224
	.db #0xc0	; 192
	.db #0xc0	; 192
	.db #0xc0	; 192
	.db #0xc0	; 192
	.db #0x80	; 128
	.db #0x00	; 0
	.db #0x00	; 0
	.db #0x00	; 0
	.db #0x00	; 0
	.db #0x00	; 0
	.db #0x00	; 0
	.db #0x01	; 1
	.db #0x01	; 1
	.db #0x07	; 7
	.db #0x03	; 3
	.db #0x0f	; 15
	.db #0x0f	; 15
	.db #0x1f	; 31
	.db #0x0f	; 15
	.db #0x1f	; 31
	.db #0x0f	; 15
	.db #0x10	; 16
	.db #0x00	; 0
	.db #0x38	; 56	'8'
	.db #0x38	; 56	'8'
	.db #0x78	; 120	'x'
	.db #0x38	; 56	'8'
	.db #0xf8	; 248
	.db #0xf0	; 240
	.db #0xf0	; 240
	.db #0xf0	; 240
	.db #0xe0	; 224
	.db #0xc0	; 192
	.db #0xe0	; 224
	.db #0xc0	; 192
	.db #0xc0	; 192
	.db #0xc0	; 192
	.db #0x00	; 0
	.db #0x00	; 0
	.db #0x38	; 56	'8'
	.db #0x38	; 56	'8'
	.db #0x78	; 120	'x'
	.db #0x38	; 56	'8'
	.db #0xf8	; 248
	.db #0xf0	; 240
	.db #0xf0	; 240
	.db #0xf0	; 240
	.db #0xe0	; 224
	.db #0xc0	; 192
	.db #0xe0	; 224
	.db #0xc0	; 192
	.db #0xe0	; 224
	.db #0xc0	; 192
	.db #0x00	; 0
	.db #0x00	; 0
	.db #0x00	; 0
	.db #0x00	; 0
	.db #0x00	; 0
	.db #0x00	; 0
	.db #0x01	; 1
	.db #0x01	; 1
	.db #0x07	; 7
	.db #0x03	; 3
	.db #0x0f	; 15
	.db #0x0f	; 15
	.db #0x0f	; 15
	.db #0x0f	; 15
	.db #0x1f	; 31
	.db #0x0f	; 15
	.db #0x10	; 16
	.db #0x00	; 0
	.db #0x3c	; 60
	.db #0x18	; 24
	.db #0x7c	; 124
	.db #0x38	; 56	'8'
	.db #0xf8	; 248
	.db #0xf8	; 248
	.db #0xf8	; 248
	.db #0xf0	; 240
	.db #0xe0	; 224
	.db #0xc0	; 192
	.db #0xe0	; 224
	.db #0xe0	; 224
	.db #0xe0	; 224
	.db #0xc0	; 192
	.db #0x10	; 16
	.db #0x00	; 0
	.db #0x3c	; 60
	.db #0x18	; 24
	.db #0x7c	; 124
	.db #0x38	; 56	'8'
	.db #0xfc	; 252
	.db #0xf8	; 248
	.db #0xf8	; 248
	.db #0xf0	; 240
	.db #0xe0	; 224
	.db #0xc0	; 192
	.db #0xe0	; 224
	.db #0xe0	; 224
	.db #0xe0	; 224
	.db #0xc0	; 192
	.db #0x1f	; 31
	.db #0x1e	; 30
	.db #0x3e	; 62
	.db #0x3c	; 60
	.db #0x7c	; 124
	.db #0x38	; 56	'8'
	.db #0x7c	; 124
	.db #0x38	; 56	'8'
	.db #0x7c	; 124
	.db #0x7c	; 124
	.db #0xfe	; 254
	.db #0x7c	; 124
	.db #0xfe	; 254
	.db #0x7e	; 126
	.db #0xfe	; 254
	.db #0xce	; 206
	.db #0x1f	; 31
	.db #0x1e	; 30
	.db #0x3e	; 62
	.db #0x3c	; 60
	.db #0x7c	; 124
	.db #0x38	; 56	'8'
	.db #0x7c	; 124
	.db #0x38	; 56	'8'
	.db #0x7c	; 124
	.db #0x7c	; 124
	.db #0x7c	; 124
	.db #0x7c	; 124
	.db #0xfe	; 254
	.db #0x7e	; 126
	.db #0xfe	; 254
	.db #0xce	; 206
	.db #0x1f	; 31
	.db #0x1e	; 30
	.db #0x3e	; 62
	.db #0x3c	; 60
	.db #0x7c	; 124
	.db #0x38	; 56	'8'
	.db #0x7c	; 124
	.db #0x38	; 56	'8'
	.db #0x7c	; 124
	.db #0x7c	; 124
	.db #0xfc	; 252
	.db #0x7c	; 124
	.db #0xfe	; 254
	.db #0x7c	; 124
	.db #0xfe	; 254
	.db #0xce	; 206
	.db #0x80	; 128
	.db #0x00	; 0
	.db #0x00	; 0
	.db #0x00	; 0
	.db #0x00	; 0
	.db #0x00	; 0
	.db #0x00	; 0
	.db #0x00	; 0
	.db #0x00	; 0
	.db #0x00	; 0
	.db #0x00	; 0
	.db #0x00	; 0
	.db #0x00	; 0
	.db #0x00	; 0
	.db #0x00	; 0
	.db #0x00	; 0
	.db #0x1f	; 31
	.db #0x1e	; 30
	.db #0x3e	; 62
	.db #0x3c	; 60
	.db #0x7c	; 124
	.db #0x38	; 56	'8'
	.db #0x7c	; 124
	.db #0x38	; 56	'8'
	.db #0x7c	; 124
	.db #0x78	; 120	'x'
	.db #0xfc	; 252
	.db #0x7c	; 124
	.db #0xfc	; 252
	.db #0x7c	; 124
	.db #0xfe	; 254
	.db #0xdc	; 220
	.db #0x1f	; 31
	.db #0x1e	; 30
	.db #0x3e	; 62
	.db #0x3c	; 60
	.db #0x7c	; 124
	.db #0x38	; 56	'8'
	.db #0x7c	; 124
	.db #0x38	; 56	'8'
	.db #0x7c	; 124
	.db #0x78	; 120	'x'
	.db #0xfc	; 252
	.db #0x7c	; 124
	.db #0xfc	; 252
	.db #0x7c	; 124
	.db #0xfc	; 252
	.db #0xfc	; 252
	.db #0x01	; 1
	.db #0x00	; 0
	.db #0x03	; 3
	.db #0x03	; 3
	.db #0x07	; 7
	.db #0x07	; 7
	.db #0x0e	; 14
	.db #0x04	; 4
	.db #0x1c	; 28
	.db #0x08	; 8
	.db #0x38	; 56	'8'
	.db #0x10	; 16
	.db #0x38	; 56	'8'
	.db #0x30	; 48	'0'
	.db #0x3c	; 60
	.db #0x38	; 56	'8'
	.db #0xe7	; 231
	.db #0xc6	; 198
	.db #0xce	; 206
	.db #0x86	; 134
	.db #0x9e	; 158
	.db #0x0c	; 12
	.db #0x1c	; 28
	.db #0x18	; 24
	.db #0x38	; 56	'8'
	.db #0x10	; 16
	.db #0x30	; 48	'0'
	.db #0x00	; 0
	.db #0x30	; 48	'0'
	.db #0x30	; 48	'0'
	.db #0x7c	; 124
	.db #0x38	; 56	'8'
	.db #0x01	; 1
	.db #0x00	; 0
	.db #0x03	; 3
	.db #0x03	; 3
	.db #0x07	; 7
	.db #0x06	; 6
	.db #0x0e	; 14
	.db #0x0c	; 12
	.db #0x1c	; 28
	.db #0x08	; 8
	.db #0x38	; 56	'8'
	.db #0x10	; 16
	.db #0x38	; 56	'8'
	.db #0x30	; 48	'0'
	.db #0x3c	; 60
	.db #0x38	; 56	'8'
	.db #0xce	; 206
	.db #0xc6	; 198
	.db #0xce	; 206
	.db #0x8c	; 140
	.db #0x9c	; 156
	.db #0x08	; 8
	.db #0x18	; 24
	.db #0x18	; 24
	.db #0x38	; 56	'8'
	.db #0x10	; 16
	.db #0x30	; 48	'0'
	.db #0x20	; 32
	.db #0x70	; 112	'p'
	.db #0x20	; 32
	.db #0x78	; 120	'x'
	.db #0x70	; 112	'p'
	.db #0x01	; 1
	.db #0x00	; 0
	.db #0x07	; 7
	.db #0x03	; 3
	.db #0x0f	; 15
	.db #0x06	; 6
	.db #0x0e	; 14
	.db #0x0c	; 12
	.db #0x18	; 24
	.db #0x18	; 24
	.db #0x30	; 48	'0'
	.db #0x30	; 48	'0'
	.db #0x30	; 48	'0'
	.db #0x30	; 48	'0'
	.db #0x38	; 56	'8'
	.db #0x18	; 24
	.db #0xce	; 206
	.db #0xc6	; 198
	.db #0xce	; 206
	.db #0x8c	; 140
	.db #0x1c	; 28
	.db #0x18	; 24
	.db #0x38	; 56	'8'
	.db #0x10	; 16
	.db #0x30	; 48	'0'
	.db #0x20	; 32
	.db #0x70	; 112	'p'
	.db #0x20	; 32
	.db #0x60	; 96
	.db #0x60	; 96
	.db #0xf8	; 248
	.db #0x70	; 112	'p'
	.db #0x01	; 1
	.db #0x01	; 1
	.db #0x07	; 7
	.db #0x03	; 3
	.db #0x0f	; 15
	.db #0x06	; 6
	.db #0x0e	; 14
	.db #0x0c	; 12
	.db #0x18	; 24
	.db #0x10	; 16
	.db #0x70	; 112	'p'
	.db #0x30	; 48	'0'
	.db #0x30	; 48	'0'
	.db #0x30	; 48	'0'
	.db #0x38	; 56	'8'
	.db #0x10	; 16
	.db #0xce	; 206
	.db #0x8c	; 140
	.db #0xde	; 222
	.db #0x8c	; 140
	.db #0x3c	; 60
	.db #0x18	; 24
	.db #0x38	; 56	'8'
	.db #0x30	; 48	'0'
	.db #0x70	; 112	'p'
	.db #0x20	; 32
	.db #0x60	; 96
	.db #0x40	; 64
	.db #0xe0	; 224
	.db #0x40	; 64
	.db #0xf8	; 248
	.db #0x60	; 96
	.db #0x03	; 3
	.db #0x01	; 1
	.db #0x07	; 7
	.db #0x03	; 3
	.db #0x0f	; 15
	.db #0x06	; 6
	.db #0x0c	; 12
	.db #0x0c	; 12
	.db #0x38	; 56	'8'
	.db #0x10	; 16
	.db #0x70	; 112	'p'
	.db #0x30	; 48	'0'
	.db #0x30	; 48	'0'
	.db #0x10	; 16
	.db #0x38	; 56	'8'
	.db #0x10	; 16
	.db #0xfc	; 252
	.db #0xcc	; 204
	.db #0xfc	; 252
	.db #0xb8	; 184
	.db #0x78	; 120	'x'
	.db #0x30	; 48	'0'
	.db #0x70	; 112	'p'
	.db #0x20	; 32
	.db #0x60	; 96
	.db #0x60	; 96
	.db #0xe0	; 224
	.db #0x40	; 64
	.db #0xe0	; 224
	.db #0x40	; 64
	.db #0xf0	; 240
	.db #0xe0	; 224
	.db #0x00	; 0
	.db #0x00	; 0
	.db #0x00	; 0
	.db #0x00	; 0
	.db #0x00	; 0
	.db #0x00	; 0
	.db #0x03	; 3
	.db #0x01	; 1
	.db #0x07	; 7
	.db #0x03	; 3
	.db #0x0f	; 15
	.db #0x0f	; 15
	.db #0x0f	; 15
	.db #0x0f	; 15
	.db #0x1f	; 31
	.db #0x0f	; 15
	.db #0x18	; 24
	.db #0x00	; 0
	.db #0x3c	; 60
	.db #0x18	; 24
	.db #0x7c	; 124
	.db #0x38	; 56	'8'
	.db #0xfc	; 252
	.db #0xf8	; 248
	.db #0xf8	; 248
	.db #0xf0	; 240
	.db #0xe0	; 224
	.db #0xe0	; 224
	.db #0xe0	; 224
	.db #0xe0	; 224
	.db #0xe0	; 224
	.db #0xc0	; 192
	.db #0x18	; 24
	.db #0x00	; 0
	.db #0x3c	; 60
	.db #0x18	; 24
	.db #0xfc	; 252
	.db #0x38	; 56	'8'
	.db #0xf8	; 248
	.db #0xf8	; 248
	.db #0xf0	; 240
	.db #0xe0	; 224
	.db #0xe0	; 224
	.db #0xe0	; 224
	.db #0xe0	; 224
	.db #0xe0	; 224
	.db #0xe0	; 224
	.db #0x80	; 128
	.db #0x18	; 24
	.db #0x10	; 16
	.db #0x3c	; 60
	.db #0x38	; 56	'8'
	.db #0xfc	; 252
	.db #0x38	; 56	'8'
	.db #0xf8	; 248
	.db #0xf0	; 240
	.db #0xf0	; 240
	.db #0xe0	; 224
	.db #0xe0	; 224
	.db #0xe0	; 224
	.db #0xe0	; 224
	.db #0xe0	; 224
	.db #0xc0	; 192
	.db #0x00	; 0
	.db #0x00	; 0
	.db #0x00	; 0
	.db #0x00	; 0
	.db #0x00	; 0
	.db #0x01	; 1
	.db #0x00	; 0
	.db #0x03	; 3
	.db #0x01	; 1
	.db #0x07	; 7
	.db #0x07	; 7
	.db #0x0f	; 15
	.db #0x0f	; 15
	.db #0x0f	; 15
	.db #0x0f	; 15
	.db #0x1f	; 31
	.db #0x0f	; 15
	.db #0x38	; 56	'8'
	.db #0x18	; 24
	.db #0x3c	; 60
	.db #0x38	; 56	'8'
	.db #0xfc	; 252
	.db #0x78	; 120	'x'
	.db #0xf8	; 248
	.db #0xf0	; 240
	.db #0xf0	; 240
	.db #0xe0	; 224
	.db #0xe0	; 224
	.db #0xe0	; 224
	.db #0xe0	; 224
	.db #0xe0	; 224
	.db #0xc0	; 192
	.db #0x00	; 0
	.db #0x00	; 0
	.db #0x00	; 0
	.db #0x00	; 0
	.db #0x00	; 0
	.db #0x01	; 1
	.db #0x00	; 0
	.db #0x03	; 3
	.db #0x03	; 3
	.db #0x07	; 7
	.db #0x07	; 7
	.db #0x0f	; 15
	.db #0x0f	; 15
	.db #0x0f	; 15
	.db #0x0f	; 15
	.db #0x1f	; 31
	.db #0x0f	; 15
	.db #0x38	; 56	'8'
	.db #0x18	; 24
	.db #0x3c	; 60
	.db #0x38	; 56	'8'
	.db #0xfc	; 252
	.db #0xf8	; 248
	.db #0xf8	; 248
	.db #0xf0	; 240
	.db #0xf0	; 240
	.db #0xc0	; 192
	.db #0xe0	; 224
	.db #0xc0	; 192
	.db #0xe0	; 224
	.db #0xc0	; 192
	.db #0xc0	; 192
	.db #0x00	; 0
	.db #0x3f	; 63
	.db #0x1e	; 30
	.db #0x3e	; 62
	.db #0x3c	; 60
	.db #0x7c	; 124
	.db #0x38	; 56	'8'
	.db #0x7c	; 124
	.db #0x38	; 56	'8'
	.db #0x78	; 120	'x'
	.db #0x38	; 56	'8'
	.db #0x7c	; 124
	.db #0x78	; 120	'x'
	.db #0xfc	; 252
	.db #0x78	; 120	'x'
	.db #0xfc	; 252
	.db #0xf8	; 248
	.db #0x3f	; 63
	.db #0x1e	; 30
	.db #0x7e	; 126
	.db #0x3c	; 60
	.db #0x7c	; 124
	.db #0x38	; 56	'8'
	.db #0x78	; 120	'x'
	.db #0x38	; 56	'8'
	.db #0x78	; 120	'x'
	.db #0x38	; 56	'8'
	.db #0x78	; 120	'x'
	.db #0x78	; 120	'x'
	.db #0x78	; 120	'x'
	.db #0x78	; 120	'x'
	.db #0xf8	; 248
	.db #0x78	; 120	'x'
	.db #0x3e	; 62
	.db #0x1e	; 30
	.db #0x7e	; 126
	.db #0x3c	; 60
	.db #0x7c	; 124
	.db #0x38	; 56	'8'
	.db #0x78	; 120	'x'
	.db #0x38	; 56	'8'
	.db #0x78	; 120	'x'
	.db #0x38	; 56	'8'
	.db #0x78	; 120	'x'
	.db #0x38	; 56	'8'
	.db #0x78	; 120	'x'
	.db #0x38	; 56	'8'
	.db #0x78	; 120	'x'
	.db #0x30	; 48	'0'
	.db #0x3e	; 62
	.db #0x1c	; 28
	.db #0x7e	; 126
	.db #0x3c	; 60
	.db #0x7c	; 124
	.db #0x38	; 56	'8'
	.db #0x78	; 120	'x'
	.db #0x38	; 56	'8'
	.db #0x38	; 56	'8'
	.db #0x38	; 56	'8'
	.db #0x78	; 120	'x'
	.db #0x38	; 56	'8'
	.db #0x78	; 120	'x'
	.db #0x38	; 56	'8'
	.db #0x78	; 120	'x'
	.db #0x38	; 56	'8'
	.db #0x3e	; 62
	.db #0x1c	; 28
	.db #0x7e	; 126
	.db #0x3c	; 60
	.db #0x7c	; 124
	.db #0x38	; 56	'8'
	.db #0x7c	; 124
	.db #0x38	; 56	'8'
	.db #0x7c	; 124
	.db #0x38	; 56	'8'
	.db #0x7c	; 124
	.db #0x38	; 56	'8'
	.db #0x7c	; 124
	.db #0x7c	; 124
	.db #0x7c	; 124
	.db #0x78	; 120	'x'
	.db #0x01	; 1
	.db #0x01	; 1
	.db #0x07	; 7
	.db #0x03	; 3
	.db #0x0f	; 15
	.db #0x06	; 6
	.db #0x0e	; 14
	.db #0x0c	; 12
	.db #0x38	; 56	'8'
	.db #0x10	; 16
	.db #0x30	; 48	'0'
	.db #0x30	; 48	'0'
	.db #0x30	; 48	'0'
	.db #0x10	; 16
	.db #0x31	; 49	'1'
	.db #0x10	; 16
	.db #0xfc	; 252
	.db #0xf8	; 248
	.db #0xfc	; 252
	.db #0xf8	; 248
	.db #0xf8	; 248
	.db #0x70	; 112	'p'
	.db #0x70	; 112	'p'
	.db #0x60	; 96
	.db #0xe0	; 224
	.db #0x40	; 64
	.db #0xc0	; 192
	.db #0x00	; 0
	.db #0xc0	; 192
	.db #0xc0	; 192
	.db #0xf0	; 240
	.db #0xe0	; 224
	.db #0x01	; 1
	.db #0x00	; 0
	.db #0x03	; 3
	.db #0x03	; 3
	.db #0x07	; 7
	.db #0x06	; 6
	.db #0x0e	; 14
	.db #0x0c	; 12
	.db #0x38	; 56	'8'
	.db #0x30	; 48	'0'
	.db #0x38	; 56	'8'
	.db #0x10	; 16
	.db #0x31	; 49	'1'
	.db #0x10	; 16
	.db #0x31	; 49	'1'
	.db #0x11	; 17
	.db #0xf8	; 248
	.db #0xf8	; 248
	.db #0xf8	; 248
	.db #0xf0	; 240
	.db #0xf0	; 240
	.db #0xe0	; 224
	.db #0xe0	; 224
	.db #0x60	; 96
	.db #0xe0	; 224
	.db #0x40	; 64
	.db #0xc0	; 192
	.db #0x80	; 128
	.db #0xc0	; 192
	.db #0x80	; 128
	.db #0xe0	; 224
	.db #0xc0	; 192
	.db #0x00	; 0
	.db #0x00	; 0
	.db #0x03	; 3
	.db #0x01	; 1
	.db #0x07	; 7
	.db #0x03	; 3
	.db #0x1f	; 31
	.db #0x0c	; 12
	.db #0x3c	; 60
	.db #0x18	; 24
	.db #0x19	; 25
	.db #0x10	; 16
	.db #0x11	; 17
	.db #0x11	; 17
	.db #0x13	; 19
	.db #0x11	; 17
	.db #0xf8	; 248
	.db #0x70	; 112	'p'
	.db #0xf8	; 248
	.db #0xf0	; 240
	.db #0xf0	; 240
	.db #0xe0	; 224
	.db #0xe0	; 224
	.db #0xc0	; 192
	.db #0xc0	; 192
	.db #0x80	; 128
	.db #0x80	; 128
	.db #0x80	; 128
	.db #0x80	; 128
	.db #0x80	; 128
	.db #0xe0	; 224
	.db #0xc0	; 192
	.db #0x00	; 0
	.db #0x00	; 0
	.db #0x01	; 1
	.db #0x01	; 1
	.db #0x03	; 3
	.db #0x03	; 3
	.db #0x1f	; 31
	.db #0x0f	; 15
	.db #0x0f	; 15
	.db #0x09	; 9
	.db #0x09	; 9
	.db #0x09	; 9
	.db #0x0b	; 11
	.db #0x01	; 1
	.db #0x0b	; 11
	.db #0x09	; 9
	.db #0xf8	; 248
	.db #0x70	; 112	'p'
	.db #0xf0	; 240
	.db #0xf0	; 240
	.db #0xe0	; 224
	.db #0xc0	; 192
	.db #0xc0	; 192
	.db #0x80	; 128
	.db #0xc0	; 192
	.db #0x80	; 128
	.db #0x80	; 128
	.db #0x00	; 0
	.db #0x80	; 128
	.db #0x00	; 0
	.db #0xe0	; 224
	.db #0xc0	; 192
	.db #0x00	; 0
	.db #0x00	; 0
	.db #0x01	; 1
	.db #0x00	; 0
	.db #0x07	; 7
	.db #0x03	; 3
	.db #0x0f	; 15
	.db #0x07	; 7
	.db #0x07	; 7
	.db #0x07	; 7
	.db #0x07	; 7
	.db #0x07	; 7
	.db #0x07	; 7
	.db #0x07	; 7
	.db #0x0f	; 15
	.db #0x07	; 7
	.db #0x7c	; 124
	.db #0x78	; 120	'x'
	.db #0xf8	; 248
	.db #0xf8	; 248
	.db #0xe0	; 224
	.db #0x80	; 128
	.db #0xc0	; 192
	.db #0x80	; 128
	.db #0x80	; 128
	.db #0x00	; 0
	.db #0x00	; 0
	.db #0x00	; 0
	.db #0x00	; 0
	.db #0x00	; 0
	.db #0xc0	; 192
	.db #0x80	; 128
	.db #0x00	; 0
	.db #0x00	; 0
	.db #0x00	; 0
	.db #0x00	; 0
	.db #0x01	; 1
	.db #0x00	; 0
	.db #0x03	; 3
	.db #0x03	; 3
	.db #0x07	; 7
	.db #0x07	; 7
	.db #0x0f	; 15
	.db #0x0f	; 15
	.db #0x0f	; 15
	.db #0x0f	; 15
	.db #0x1f	; 31
	.db #0x0e	; 14
	.db #0x38	; 56	'8'
	.db #0x38	; 56	'8'
	.db #0x7c	; 124
	.db #0x38	; 56	'8'
	.db #0xf8	; 248
	.db #0xf8	; 248
	.db #0xf8	; 248
	.db #0xf0	; 240
	.db #0xe0	; 224
	.db #0xc0	; 192
	.db #0xe0	; 224
	.db #0xc0	; 192
	.db #0xe0	; 224
	.db #0xc0	; 192
	.db #0xc0	; 192
	.db #0x00	; 0
	.db #0x00	; 0
	.db #0x00	; 0
	.db #0x00	; 0
	.db #0x00	; 0
	.db #0x01	; 1
	.db #0x00	; 0
	.db #0x03	; 3
	.db #0x03	; 3
	.db #0x07	; 7
	.db #0x03	; 3
	.db #0x0f	; 15
	.db #0x0f	; 15
	.db #0x0f	; 15
	.db #0x0f	; 15
	.db #0x1f	; 31
	.db #0x0e	; 14
	.db #0x38	; 56	'8'
	.db #0x38	; 56	'8'
	.db #0x78	; 120	'x'
	.db #0x38	; 56	'8'
	.db #0xf8	; 248
	.db #0x78	; 120	'x'
	.db #0xf8	; 248
	.db #0xf0	; 240
	.db #0xf0	; 240
	.db #0xc0	; 192
	.db #0xe0	; 224
	.db #0xc0	; 192
	.db #0xe0	; 224
	.db #0xc0	; 192
	.db #0xc0	; 192
	.db #0x00	; 0
	.db #0x38	; 56	'8'
	.db #0x38	; 56	'8'
	.db #0x78	; 120	'x'
	.db #0x38	; 56	'8'
	.db #0xf8	; 248
	.db #0x78	; 120	'x'
	.db #0xf8	; 248
	.db #0xf0	; 240
	.db #0xf0	; 240
	.db #0xc0	; 192
	.db #0xe0	; 224
	.db #0xc0	; 192
	.db #0xe0	; 224
	.db #0xc0	; 192
	.db #0xc0	; 192
	.db #0x80	; 128
	.db #0x3e	; 62
	.db #0x1c	; 28
	.db #0x7e	; 126
	.db #0x3c	; 60
	.db #0x7c	; 124
	.db #0x3c	; 60
	.db #0x7c	; 124
	.db #0x3c	; 60
	.db #0x7c	; 124
	.db #0x3c	; 60
	.db #0x7e	; 126
	.db #0x7e	; 126
	.db #0x7e	; 126
	.db #0x7e	; 126
	.db #0xfe	; 254
	.db #0x7e	; 126
	.db #0x3e	; 62
	.db #0x1c	; 28
	.db #0x7c	; 124
	.db #0x3c	; 60
	.db #0x7c	; 124
	.db #0x3c	; 60
	.db #0x7c	; 124
	.db #0x3c	; 60
	.db #0x7e	; 126
	.db #0x7e	; 126
	.db #0x7e	; 126
	.db #0x7e	; 126
	.db #0xff	; 255
	.db #0x7e	; 126
	.db #0xff	; 255
	.db #0x7f	; 127
	.db #0x3e	; 62
	.db #0x1c	; 28
	.db #0x3e	; 62
	.db #0x3c	; 60
	.db #0x7e	; 126
	.db #0x3c	; 60
	.db #0x7e	; 126
	.db #0x3e	; 62
	.db #0x7f	; 127
	.db #0x7f	; 127
	.db #0x7f	; 127
	.db #0x77	; 119	'w'
	.db #0xff	; 255
	.db #0x63	; 99	'c'
	.db #0xff	; 255
	.db #0xff	; 255
	.db #0x00	; 0
	.db #0x00	; 0
	.db #0x00	; 0
	.db #0x00	; 0
	.db #0x00	; 0
	.db #0x00	; 0
	.db #0x00	; 0
	.db #0x00	; 0
	.db #0x00	; 0
	.db #0x00	; 0
	.db #0x80	; 128
	.db #0x80	; 128
	.db #0x80	; 128
	.db #0x80	; 128
	.db #0x80	; 128
	.db #0x00	; 0
	.db #0x3e	; 62
	.db #0x1c	; 28
	.db #0x3e	; 62
	.db #0x3c	; 60
	.db #0x7e	; 126
	.db #0x3e	; 62
	.db #0x7f	; 127
	.db #0x3f	; 63
	.db #0x7f	; 127
	.db #0x7f	; 127
	.db #0xf7	; 247
	.db #0x63	; 99	'c'
	.db #0xf7	; 247
	.db #0x63	; 99	'c'
	.db #0xff	; 255
	.db #0xf6	; 246
	.db #0x00	; 0
	.db #0x00	; 0
	.db #0x00	; 0
	.db #0x00	; 0
	.db #0x00	; 0
	.db #0x00	; 0
	.db #0x80	; 128
	.db #0x00	; 0
	.db #0xc0	; 192
	.db #0x80	; 128
	.db #0xc0	; 192
	.db #0xc0	; 192
	.db #0xc0	; 192
	.db #0x80	; 128
	.db #0x80	; 128
	.db #0x00	; 0
	.db #0x1e	; 30
	.db #0x1c	; 28
	.db #0x3e	; 62
	.db #0x3c	; 60
	.db #0x7f	; 127
	.db #0x3e	; 62
	.db #0x7f	; 127
	.db #0x3f	; 63
	.db #0x7f	; 127
	.db #0x73	; 115	's'
	.db #0xf3	; 243
	.db #0x61	; 97	'a'
	.db #0xf3	; 243
	.db #0xe3	; 227
	.db #0xe7	; 231
	.db #0xc2	; 194
	.db #0x00	; 0
	.db #0x00	; 0
	.db #0x00	; 0
	.db #0x00	; 0
	.db #0x00	; 0
	.db #0x00	; 0
	.db #0xc0	; 192
	.db #0x80	; 128
	.db #0xe0	; 224
	.db #0xc0	; 192
	.db #0xe0	; 224
	.db #0xc0	; 192
	.db #0xc0	; 192
	.db #0x80	; 128
	.db #0x00	; 0
	.db #0x00	; 0
	.db #0x00	; 0
	.db #0x00	; 0
	.db #0x01	; 1
	.db #0x00	; 0
	.db #0x03	; 3
	.db #0x03	; 3
	.db #0x03	; 3
	.db #0x03	; 3
	.db #0x03	; 3
	.db #0x03	; 3
	.db #0x03	; 3
	.db #0x02	; 2
	.db #0x03	; 3
	.db #0x02	; 2
	.db #0x07	; 7
	.db #0x03	; 3
	.db #0xfe	; 254
	.db #0x7e	; 126
	.db #0xfc	; 252
	.db #0xf0	; 240
	.db #0xe0	; 224
	.db #0x80	; 128
	.db #0x80	; 128
	.db #0x00	; 0
	.db #0x80	; 128
	.db #0x00	; 0
	.db #0x00	; 0
	.db #0x00	; 0
	.db #0x00	; 0
	.db #0x00	; 0
	.db #0xc0	; 192
	.db #0x80	; 128
	.db #0x00	; 0
	.db #0x00	; 0
	.db #0x01	; 1
	.db #0x01	; 1
	.db #0x03	; 3
	.db #0x01	; 1
	.db #0x03	; 3
	.db #0x01	; 1
	.db #0x03	; 3
	.db #0x03	; 3
	.db #0x03	; 3
	.db #0x02	; 2
	.db #0x07	; 7
	.db #0x02	; 2
	.db #0x07	; 7
	.db #0x03	; 3
	.db #0xff	; 255
	.db #0xfe	; 254
	.db #0xfc	; 252
	.db #0xe0	; 224
	.db #0xc0	; 192
	.db #0x80	; 128
	.db #0x80	; 128
	.db #0x00	; 0
	.db #0x00	; 0
	.db #0x00	; 0
	.db #0x00	; 0
	.db #0x00	; 0
	.db #0x00	; 0
	.db #0x00	; 0
	.db #0x80	; 128
	.db #0x00	; 0
	.db #0x00	; 0
	.db #0x00	; 0
	.db #0x01	; 1
	.db #0x01	; 1
	.db #0x03	; 3
	.db #0x01	; 1
	.db #0x03	; 3
	.db #0x03	; 3
	.db #0x03	; 3
	.db #0x02	; 2
	.db #0x06	; 6
	.db #0x02	; 2
	.db #0x06	; 6
	.db #0x06	; 6
	.db #0x07	; 7
	.db #0x07	; 7
	.db #0xfe	; 254
	.db #0xfc	; 252
	.db #0xf8	; 248
	.db #0xe0	; 224
	.db #0xe0	; 224
	.db #0xc0	; 192
	.db #0xc0	; 192
	.db #0xc0	; 192
	.db #0xc0	; 192
	.db #0x00	; 0
	.db #0x40	; 64
	.db #0x00	; 0
	.db #0x00	; 0
	.db #0x00	; 0
	.db #0x80	; 128
	.db #0x00	; 0
	.db #0x01	; 1
	.db #0x00	; 0
	.db #0x03	; 3
	.db #0x01	; 1
	.db #0x03	; 3
	.db #0x03	; 3
	.db #0x03	; 3
	.db #0x02	; 2
	.db #0x07	; 7
	.db #0x02	; 2
	.db #0x06	; 6
	.db #0x04	; 4
	.db #0x06	; 6
	.db #0x04	; 4
	.db #0x0f	; 15
	.db #0x07	; 7
	.db #0xfe	; 254
	.db #0xf8	; 248
	.db #0xf8	; 248
	.db #0xf0	; 240
	.db #0xf0	; 240
	.db #0x20	; 32
	.db #0x30	; 48	'0'
	.db #0x00	; 0
	.db #0x30	; 48	'0'
	.db #0x00	; 0
	.db #0x00	; 0
	.db #0x00	; 0
	.db #0x00	; 0
	.db #0x00	; 0
	.db #0x80	; 128
	.db #0x00	; 0
	.db #0x01	; 1
	.db #0x00	; 0
	.db #0x03	; 3
	.db #0x01	; 1
	.db #0x03	; 3
	.db #0x03	; 3
	.db #0x07	; 7
	.db #0x02	; 2
	.db #0x06	; 6
	.db #0x04	; 4
	.db #0x06	; 6
	.db #0x04	; 4
	.db #0x0e	; 14
	.db #0x04	; 4
	.db #0x0f	; 15
	.db #0x0e	; 14
	.db #0xee	; 238
	.db #0xc4	; 196
	.db #0xfc	; 252
	.db #0x98	; 152
	.db #0x98	; 152
	.db #0x18	; 24
	.db #0x08	; 8
	.db #0x08	; 8
	.db #0x08	; 8
	.db #0x00	; 0
	.db #0x00	; 0
	.db #0x00	; 0
	.db #0x00	; 0
	.db #0x00	; 0
	.db #0x00	; 0
	.db #0x00	; 0
	.db #0x00	; 0
	.db #0x00	; 0
	.db #0x00	; 0
	.db #0x00	; 0
	.db #0x01	; 1
	.db #0x00	; 0
	.db #0x03	; 3
	.db #0x01	; 1
	.db #0x07	; 7
	.db #0x03	; 3
	.db #0x0f	; 15
	.db #0x0f	; 15
	.db #0x0f	; 15
	.db #0x0f	; 15
	.db #0x1f	; 31
	.db #0x0f	; 15
	.db #0x38	; 56	'8'
	.db #0x18	; 24
	.db #0x3c	; 60
	.db #0x38	; 56	'8'
	.db #0xfc	; 252
	.db #0x78	; 120	'x'
	.db #0xf8	; 248
	.db #0xf0	; 240
	.db #0xf0	; 240
	.db #0xe0	; 224
	.db #0xe0	; 224
	.db #0xc0	; 192
	.db #0xe0	; 224
	.db #0xc0	; 192
	.db #0xc0	; 192
	.db #0x00	; 0
	.db #0x38	; 56	'8'
	.db #0x18	; 24
	.db #0x38	; 56	'8'
	.db #0x38	; 56	'8'
	.db #0xf8	; 248
	.db #0x78	; 120	'x'
	.db #0xf8	; 248
	.db #0xf0	; 240
	.db #0xf0	; 240
	.db #0xe0	; 224
	.db #0xe0	; 224
	.db #0xc0	; 192
	.db #0xe0	; 224
	.db #0xc0	; 192
	.db #0xc0	; 192
	.db #0x00	; 0
	.db #0x00	; 0
	.db #0x00	; 0
	.db #0x00	; 0
	.db #0x00	; 0
	.db #0x01	; 1
	.db #0x00	; 0
	.db #0x03	; 3
	.db #0x01	; 1
	.db #0x0f	; 15
	.db #0x07	; 7
	.db #0x0f	; 15
	.db #0x0f	; 15
	.db #0x0f	; 15
	.db #0x0f	; 15
	.db #0x1f	; 31
	.db #0x0f	; 15
	.db #0x38	; 56	'8'
	.db #0x10	; 16
	.db #0x38	; 56	'8'
	.db #0x38	; 56	'8'
	.db #0xf8	; 248
	.db #0x78	; 120	'x'
	.db #0xf8	; 248
	.db #0xf0	; 240
	.db #0xf0	; 240
	.db #0xc0	; 192
	.db #0xe0	; 224
	.db #0xc0	; 192
	.db #0xe0	; 224
	.db #0xc0	; 192
	.db #0xc0	; 192
	.db #0x80	; 128
	.db #0x38	; 56	'8'
	.db #0x10	; 16
	.db #0x3c	; 60
	.db #0x38	; 56	'8'
	.db #0xfc	; 252
	.db #0x78	; 120	'x'
	.db #0xf8	; 248
	.db #0xf0	; 240
	.db #0xf0	; 240
	.db #0xe0	; 224
	.db #0xe0	; 224
	.db #0xc0	; 192
	.db #0xe0	; 224
	.db #0xc0	; 192
	.db #0xe0	; 224
	.db #0xc0	; 192
	.db #0x00	; 0
	.db #0x00	; 0
	.db #0x00	; 0
	.db #0x00	; 0
	.db #0x00	; 0
	.db #0x00	; 0
	.db #0x03	; 3
	.db #0x01	; 1
	.db #0x0f	; 15
	.db #0x07	; 7
	.db #0x0f	; 15
	.db #0x0f	; 15
	.db #0x0f	; 15
	.db #0x07	; 7
	.db #0x0f	; 15
	.db #0x0f	; 15
	.db #0x18	; 24
	.db #0x00	; 0
	.db #0x3c	; 60
	.db #0x18	; 24
	.db #0x7c	; 124
	.db #0x38	; 56	'8'
	.db #0xf8	; 248
	.db #0xf8	; 248
	.db #0xf0	; 240
	.db #0xf0	; 240
	.db #0xe0	; 224
	.db #0xc0	; 192
	.db #0xe0	; 224
	.db #0xe0	; 224
	.db #0xe0	; 224
	.db #0xc0	; 192
	.db #0x1f	; 31
	.db #0x1e	; 30
	.db #0x3f	; 63
	.db #0x1e	; 30
	.db #0x7f	; 127
	.db #0x3f	; 63
	.db #0x7f	; 127
	.db #0x3f	; 63
	.db #0x7f	; 127
	.db #0x71	; 113	'q'
	.db #0xf1	; 241
	.db #0x70	; 112	'p'
	.db #0xf1	; 241
	.db #0xe0	; 224
	.db #0xe1	; 225
	.db #0xc1	; 193
	.db #0x00	; 0
	.db #0x00	; 0
	.db #0x00	; 0
	.db #0x00	; 0
	.db #0xc0	; 192
	.db #0x80	; 128
	.db #0xe0	; 224
	.db #0xe0	; 224
	.db #0xf0	; 240
	.db #0xe0	; 224
	.db #0xe0	; 224
	.db #0xc0	; 192
	.db #0xc0	; 192
	.db #0x80	; 128
	.db #0x80	; 128
	.db #0x80	; 128
	.db #0x00	; 0
	.db #0x00	; 0
	.db #0x00	; 0
	.db #0x00	; 0
	.db #0x00	; 0
	.db #0x00	; 0
	.db #0x00	; 0
	.db #0x00	; 0
	.db #0x00	; 0
	.db #0x00	; 0
	.db #0x00	; 0
	.db #0x00	; 0
	.db #0x00	; 0
	.db #0x00	; 0
	.db #0x01	; 1
	.db #0x00	; 0
	.db #0x1e	; 30
	.db #0x1e	; 30
	.db #0x3e	; 62
	.db #0x3e	; 62
	.db #0x7f	; 127
	.db #0x3f	; 63
	.db #0x7f	; 127
	.db #0x3f	; 63
	.db #0x7f	; 127
	.db #0x73	; 115	's'
	.db #0xf1	; 241
	.db #0x60	; 96
	.db #0xe0	; 224
	.db #0xe0	; 224
	.db #0xe1	; 225
	.db #0xc0	; 192
	.db #0x00	; 0
	.db #0x00	; 0
	.db #0x00	; 0
	.db #0x00	; 0
	.db #0x80	; 128
	.db #0x00	; 0
	.db #0xe0	; 224
	.db #0xc0	; 192
	.db #0xe0	; 224
	.db #0xe0	; 224
	.db #0xe0	; 224
	.db #0xe0	; 224
	.db #0xe0	; 224
	.db #0xc0	; 192
	.db #0xc0	; 192
	.db #0x80	; 128
	.db #0x1f	; 31
	.db #0x1e	; 30
	.db #0x3e	; 62
	.db #0x3c	; 60
	.db #0x7f	; 127
	.db #0x3e	; 62
	.db #0x7f	; 127
	.db #0x3f	; 63
	.db #0x7f	; 127
	.db #0x77	; 119	'w'
	.db #0xf3	; 243
	.db #0x61	; 97	'a'
	.db #0xe0	; 224
	.db #0xe0	; 224
	.db #0xe0	; 224
	.db #0xc0	; 192
	.db #0x00	; 0
	.db #0x00	; 0
	.db #0x00	; 0
	.db #0x00	; 0
	.db #0x00	; 0
	.db #0x00	; 0
	.db #0x80	; 128
	.db #0x80	; 128
	.db #0xe0	; 224
	.db #0xc0	; 192
	.db #0xe0	; 224
	.db #0xe0	; 224
	.db #0xe0	; 224
	.db #0x40	; 64
	.db #0xe0	; 224
	.db #0xc0	; 192
	.db #0x00	; 0
	.db #0x00	; 0
	.db #0x00	; 0
	.db #0x00	; 0
	.db #0x00	; 0
	.db #0x00	; 0
	.db #0x00	; 0
	.db #0x00	; 0
	.db #0x00	; 0
	.db #0x00	; 0
	.db #0x00	; 0
	.db #0x00	; 0
	.db #0x01	; 1
	.db #0x00	; 0
	.db #0x01	; 1
	.db #0x00	; 0
	.db #0x1f	; 31
	.db #0x1e	; 30
	.db #0x3e	; 62
	.db #0x3c	; 60
	.db #0x7e	; 126
	.db #0x3c	; 60
	.db #0x7f	; 127
	.db #0x3f	; 63
	.db #0x7f	; 127
	.db #0x7f	; 127
	.db #0xf7	; 247
	.db #0xe3	; 227
	.db #0xe1	; 225
	.db #0xc0	; 192
	.db #0xe0	; 224
	.db #0xc0	; 192
	.db #0x00	; 0
	.db #0x00	; 0
	.db #0x00	; 0
	.db #0x00	; 0
	.db #0x00	; 0
	.db #0x00	; 0
	.db #0x00	; 0
	.db #0x00	; 0
	.db #0x80	; 128
	.db #0x80	; 128
	.db #0xc0	; 192
	.db #0xc0	; 192
	.db #0xe0	; 224
	.db #0xc0	; 192
	.db #0xe0	; 224
	.db #0xc0	; 192
	.db #0x1f	; 31
	.db #0x0f	; 15
	.db #0x3e	; 62
	.db #0x1c	; 28
	.db #0x7e	; 126
	.db #0x3c	; 60
	.db #0x7f	; 127
	.db #0x3e	; 62
	.db #0x7f	; 127
	.db #0x7f	; 127
	.db #0xff	; 255
	.db #0xe7	; 231
	.db #0xe3	; 227
	.db #0xe1	; 225
	.db #0xe1	; 225
	.db #0xc0	; 192
	.db #0xc0	; 192
	.db #0x00	; 0
	.db #0x00	; 0
	.db #0x00	; 0
	.db #0x00	; 0
	.db #0x00	; 0
	.db #0x00	; 0
	.db #0x00	; 0
	.db #0x80	; 128
	.db #0x00	; 0
	.db #0xc0	; 192
	.db #0xc0	; 192
	.db #0xe0	; 224
	.db #0xc0	; 192
	.db #0xe0	; 224
	.db #0xc0	; 192
	.db #0x01	; 1
	.db #0x01	; 1
	.db #0x03	; 3
	.db #0x01	; 1
	.db #0x07	; 7
	.db #0x03	; 3
	.db #0x07	; 7
	.db #0x06	; 6
	.db #0x06	; 6
	.db #0x04	; 4
	.db #0x0c	; 12
	.db #0x04	; 4
	.db #0x0c	; 12
	.db #0x0c	; 12
	.db #0x1f	; 31
	.db #0x0e	; 14
	.db #0xc3	; 195
	.db #0x81	; 129
	.db #0x87	; 135
	.db #0x82	; 130
	.db #0x06	; 6
	.db #0x06	; 6
	.db #0x07	; 7
	.db #0x02	; 2
	.db #0x03	; 3
	.db #0x01	; 1
	.db #0x00	; 0
	.db #0x00	; 0
	.db #0x00	; 0
	.db #0x00	; 0
	.db #0x00	; 0
	.db #0x00	; 0
	.db #0x01	; 1
	.db #0x01	; 1
	.db #0x03	; 3
	.db #0x03	; 3
	.db #0x07	; 7
	.db #0x02	; 2
	.db #0x06	; 6
	.db #0x06	; 6
	.db #0x0e	; 14
	.db #0x04	; 4
	.db #0x0c	; 12
	.db #0x08	; 8
	.db #0x1c	; 28
	.db #0x0c	; 12
	.db #0x1f	; 31
	.db #0x0e	; 14
	.db #0xc1	; 193
	.db #0x81	; 129
	.db #0x81	; 129
	.db #0x01	; 1
	.db #0x03	; 3
	.db #0x01	; 1
	.db #0x07	; 7
	.db #0x03	; 3
	.db #0x03	; 3
	.db #0x01	; 1
	.db #0x00	; 0
	.db #0x00	; 0
	.db #0x00	; 0
	.db #0x00	; 0
	.db #0x00	; 0
	.db #0x00	; 0
	.db #0x80	; 128
	.db #0x80	; 128
	.db #0x80	; 128
	.db #0x00	; 0
	.db #0x00	; 0
	.db #0x00	; 0
	.db #0x00	; 0
	.db #0x00	; 0
	.db #0x80	; 128
	.db #0x80	; 128
	.db #0x80	; 128
	.db #0x00	; 0
	.db #0x00	; 0
	.db #0x00	; 0
	.db #0x00	; 0
	.db #0x00	; 0
	.db #0x03	; 3
	.db #0x01	; 1
	.db #0x07	; 7
	.db #0x03	; 3
	.db #0x07	; 7
	.db #0x06	; 6
	.db #0x0e	; 14
	.db #0x04	; 4
	.db #0x0c	; 12
	.db #0x04	; 4
	.db #0x0c	; 12
	.db #0x08	; 8
	.db #0x1c	; 28
	.db #0x08	; 8
	.db #0x1e	; 30
	.db #0x1c	; 28
	.db #0xc1	; 193
	.db #0x80	; 128
	.db #0x81	; 129
	.db #0x00	; 0
	.db #0x01	; 1
	.db #0x01	; 1
	.db #0x01	; 1
	.db #0x01	; 1
	.db #0x03	; 3
	.db #0x01	; 1
	.db #0x03	; 3
	.db #0x01	; 1
	.db #0x00	; 0
	.db #0x00	; 0
	.db #0x00	; 0
	.db #0x00	; 0
	.db #0xc0	; 192
	.db #0x80	; 128
	.db #0x80	; 128
	.db #0x80	; 128
	.db #0x80	; 128
	.db #0x00	; 0
	.db #0x80	; 128
	.db #0x00	; 0
	.db #0x80	; 128
	.db #0x00	; 0
	.db #0x80	; 128
	.db #0x80	; 128
	.db #0xc0	; 192
	.db #0x40	; 64
	.db #0x60	; 96
	.db #0x40	; 64
	.db #0x03	; 3
	.db #0x01	; 1
	.db #0x07	; 7
	.db #0x03	; 3
	.db #0x07	; 7
	.db #0x06	; 6
	.db #0x0e	; 14
	.db #0x04	; 4
	.db #0x0c	; 12
	.db #0x08	; 8
	.db #0x18	; 24
	.db #0x08	; 8
	.db #0x1c	; 28
	.db #0x18	; 24
	.db #0x3e	; 62
	.db #0x1c	; 28
	.db #0xc1	; 193
	.db #0x80	; 128
	.db #0x81	; 129
	.db #0x00	; 0
	.db #0x01	; 1
	.db #0x00	; 0
	.db #0x01	; 1
	.db #0x00	; 0
	.db #0x01	; 1
	.db #0x01	; 1
	.db #0x03	; 3
	.db #0x01	; 1
	.db #0x03	; 3
	.db #0x01	; 1
	.db #0x01	; 1
	.db #0x00	; 0
	.db #0xc0	; 192
	.db #0x80	; 128
	.db #0xc0	; 192
	.db #0x80	; 128
	.db #0x80	; 128
	.db #0x80	; 128
	.db #0x80	; 128
	.db #0x00	; 0
	.db #0x80	; 128
	.db #0x00	; 0
	.db #0x80	; 128
	.db #0x80	; 128
	.db #0xc0	; 192
	.db #0x80	; 128
	.db #0xe0	; 224
	.db #0xc0	; 192
	.db #0x03	; 3
	.db #0x01	; 1
	.db #0x07	; 7
	.db #0x03	; 3
	.db #0x0e	; 14
	.db #0x06	; 6
	.db #0x0e	; 14
	.db #0x0c	; 12
	.db #0x1c	; 28
	.db #0x08	; 8
	.db #0x18	; 24
	.db #0x08	; 8
	.db #0x38	; 56	'8'
	.db #0x18	; 24
	.db #0x3c	; 60
	.db #0x1c	; 28
	.db #0xc0	; 192
	.db #0x80	; 128
	.db #0x81	; 129
	.db #0x00	; 0
	.db #0x01	; 1
	.db #0x00	; 0
	.db #0x01	; 1
	.db #0x01	; 1
	.db #0x01	; 1
	.db #0x01	; 1
	.db #0x01	; 1
	.db #0x01	; 1
	.db #0x03	; 3
	.db #0x03	; 3
	.db #0x03	; 3
	.db #0x03	; 3
	.db #0xc0	; 192
	.db #0xc0	; 192
	.db #0xc0	; 192
	.db #0x80	; 128
	.db #0x80	; 128
	.db #0x80	; 128
	.db #0x80	; 128
	.db #0x00	; 0
	.db #0x80	; 128
	.db #0x00	; 0
	.db #0x80	; 128
	.db #0x00	; 0
	.db #0x80	; 128
	.db #0x00	; 0
	.db #0xc0	; 192
	.db #0x80	; 128
	.db #0x00	; 0
	.db #0x00	; 0
	.db #0x38	; 56	'8'
	.db #0x18	; 24
	.db #0x7c	; 124
	.db #0x38	; 56	'8'
	.db #0xf8	; 248
	.db #0xf8	; 248
	.db #0xf8	; 248
	.db #0xf0	; 240
	.db #0xe0	; 224
	.db #0xc0	; 192
	.db #0xe0	; 224
	.db #0xc0	; 192
	.db #0xe0	; 224
	.db #0xe0	; 224
	.db #0x00	; 0
	.db #0x00	; 0
	.db #0x00	; 0
	.db #0x00	; 0
	.db #0x00	; 0
	.db #0x00	; 0
	.db #0x01	; 1
	.db #0x01	; 1
	.db #0x07	; 7
	.db #0x07	; 7
	.db #0x0f	; 15
	.db #0x0f	; 15
	.db #0x0f	; 15
	.db #0x07	; 7
	.db #0x0f	; 15
	.db #0x0f	; 15
	.db #0x00	; 0
	.db #0x00	; 0
	.db #0x18	; 24
	.db #0x18	; 24
	.db #0x3c	; 60
	.db #0x38	; 56	'8'
	.db #0xfc	; 252
	.db #0xf8	; 248
	.db #0xf8	; 248
	.db #0xf0	; 240
	.db #0xf0	; 240
	.db #0xe0	; 224
	.db #0xe0	; 224
	.db #0xc0	; 192
	.db #0xe0	; 224
	.db #0xe0	; 224
	.db #0x00	; 0
	.db #0x00	; 0
	.db #0x00	; 0
	.db #0x00	; 0
	.db #0x00	; 0
	.db #0x00	; 0
	.db #0x01	; 1
	.db #0x00	; 0
	.db #0x07	; 7
	.db #0x03	; 3
	.db #0x0f	; 15
	.db #0x07	; 7
	.db #0x0f	; 15
	.db #0x07	; 7
	.db #0x0f	; 15
	.db #0x07	; 7
	.db #0x00	; 0
	.db #0x00	; 0
	.db #0x18	; 24
	.db #0x00	; 0
	.db #0x3c	; 60
	.db #0x1c	; 28
	.db #0xfc	; 252
	.db #0xbc	; 188
	.db #0xfc	; 252
	.db #0xf8	; 248
	.db #0xf8	; 248
	.db #0xf0	; 240
	.db #0xe0	; 224
	.db #0xc0	; 192
	.db #0xe0	; 224
	.db #0xe0	; 224
	.db #0x00	; 0
	.db #0x00	; 0
	.db #0x00	; 0
	.db #0x00	; 0
	.db #0x00	; 0
	.db #0x00	; 0
	.db #0x00	; 0
	.db #0x00	; 0
	.db #0x03	; 3
	.db #0x01	; 1
	.db #0x0f	; 15
	.db #0x07	; 7
	.db #0x0f	; 15
	.db #0x07	; 7
	.db #0x0f	; 15
	.db #0x07	; 7
	.db #0x00	; 0
	.db #0x00	; 0
	.db #0x00	; 0
	.db #0x00	; 0
	.db #0x1c	; 28
	.db #0x1c	; 28
	.db #0xfc	; 252
	.db #0x1c	; 28
	.db #0xfc	; 252
	.db #0xf8	; 248
	.db #0xf8	; 248
	.db #0xf0	; 240
	.db #0xe0	; 224
	.db #0xe0	; 224
	.db #0xe0	; 224
	.db #0xe0	; 224
	.db #0x00	; 0
	.db #0x00	; 0
	.db #0x00	; 0
	.db #0x00	; 0
	.db #0x00	; 0
	.db #0x00	; 0
	.db #0x00	; 0
	.db #0x00	; 0
	.db #0x01	; 1
	.db #0x01	; 1
	.db #0x07	; 7
	.db #0x07	; 7
	.db #0x0f	; 15
	.db #0x07	; 7
	.db #0x0f	; 15
	.db #0x07	; 7
	.db #0x00	; 0
	.db #0x00	; 0
	.db #0x00	; 0
	.db #0x00	; 0
	.db #0x1c	; 28
	.db #0x0c	; 12
	.db #0xfe	; 254
	.db #0x1c	; 28
	.db #0xfc	; 252
	.db #0xfc	; 252
	.db #0xfc	; 252
	.db #0xf8	; 248
	.db #0xf0	; 240
	.db #0xe0	; 224
	.db #0xe0	; 224
	.db #0xe0	; 224
	.db #0x00	; 0
	.db #0x00	; 0
	.db #0x00	; 0
	.db #0x00	; 0
	.db #0x00	; 0
	.db #0x00	; 0
	.db #0x00	; 0
	.db #0x00	; 0
	.db #0x00	; 0
	.db #0x00	; 0
	.db #0x00	; 0
	.db #0x00	; 0
	.db #0x01	; 1
	.db #0x00	; 0
	.db #0x01	; 1
	.db #0x01	; 1
	.db #0x1f	; 31
	.db #0x0f	; 15
	.db #0x3f	; 63
	.db #0x1e	; 30
	.db #0x7e	; 126
	.db #0x3c	; 60
	.db #0x7e	; 126
	.db #0x3e	; 62
	.db #0xff	; 255
	.db #0x7f	; 127
	.db #0xff	; 255
	.db #0xe7	; 231
	.db #0xe7	; 231
	.db #0xc3	; 195
	.db #0xc1	; 193
	.db #0xc1	; 193
	.db #0xe0	; 224
	.db #0xc0	; 192
	.db #0x00	; 0
	.db #0x00	; 0
	.db #0x00	; 0
	.db #0x00	; 0
	.db #0x00	; 0
	.db #0x00	; 0
	.db #0x00	; 0
	.db #0x00	; 0
	.db #0x80	; 128
	.db #0x80	; 128
	.db #0xc0	; 192
	.db #0xc0	; 192
	.db #0xe0	; 224
	.db #0xc0	; 192
	.db #0x1f	; 31
	.db #0x0f	; 15
	.db #0x3f	; 63
	.db #0x1e	; 30
	.db #0x3e	; 62
	.db #0x3c	; 60
	.db #0x7e	; 126
	.db #0x3c	; 60
	.db #0xff	; 255
	.db #0x7e	; 126
	.db #0xff	; 255
	.db #0xef	; 239
	.db #0xe7	; 231
	.db #0xc3	; 195
	.db #0xc3	; 195
	.db #0xc1	; 193
	.db #0xe0	; 224
	.db #0xc0	; 192
	.db #0xc0	; 192
	.db #0x00	; 0
	.db #0x00	; 0
	.db #0x00	; 0
	.db #0x00	; 0
	.db #0x00	; 0
	.db #0x00	; 0
	.db #0x00	; 0
	.db #0x80	; 128
	.db #0x00	; 0
	.db #0xc0	; 192
	.db #0x80	; 128
	.db #0xc0	; 192
	.db #0xc0	; 192
	.db #0x0f	; 15
	.db #0x0f	; 15
	.db #0x1f	; 31
	.db #0x1f	; 31
	.db #0x3e	; 62
	.db #0x3c	; 60
	.db #0x7e	; 126
	.db #0x3c	; 60
	.db #0x7f	; 127
	.db #0x7e	; 126
	.db #0xff	; 255
	.db #0xff	; 255
	.db #0xe7	; 231
	.db #0xc7	; 199
	.db #0xc3	; 195
	.db #0xc3	; 195
	.db #0xe0	; 224
	.db #0xe0	; 224
	.db #0xc0	; 192
	.db #0x80	; 128
	.db #0x00	; 0
	.db #0x00	; 0
	.db #0x00	; 0
	.db #0x00	; 0
	.db #0x00	; 0
	.db #0x00	; 0
	.db #0x80	; 128
	.db #0x00	; 0
	.db #0x80	; 128
	.db #0x80	; 128
	.db #0xc0	; 192
	.db #0x80	; 128
	.db #0x00	; 0
	.db #0x00	; 0
	.db #0x00	; 0
	.db #0x00	; 0
	.db #0x00	; 0
	.db #0x00	; 0
	.db #0x00	; 0
	.db #0x00	; 0
	.db #0x00	; 0
	.db #0x00	; 0
	.db #0x00	; 0
	.db #0x00	; 0
	.db #0x01	; 1
	.db #0x00	; 0
	.db #0x03	; 3
	.db #0x01	; 1
	.db #0x0f	; 15
	.db #0x0f	; 15
	.db #0x1f	; 31
	.db #0x1f	; 31
	.db #0x7e	; 126
	.db #0x3c	; 60
	.db #0x7e	; 126
	.db #0x3c	; 60
	.db #0xfe	; 254
	.db #0x7e	; 126
	.db #0xff	; 255
	.db #0xef	; 239
	.db #0xe7	; 231
	.db #0xc7	; 199
	.db #0xc3	; 195
	.db #0x83	; 131
	.db #0xf0	; 240
	.db #0xe0	; 224
	.db #0xe0	; 224
	.db #0xc0	; 192
	.db #0x00	; 0
	.db #0x00	; 0
	.db #0x00	; 0
	.db #0x00	; 0
	.db #0x00	; 0
	.db #0x00	; 0
	.db #0x00	; 0
	.db #0x00	; 0
	.db #0x80	; 128
	.db #0x80	; 128
	.db #0x80	; 128
	.db #0x80	; 128
	.db #0x00	; 0
	.db #0x00	; 0
	.db #0x00	; 0
	.db #0x00	; 0
	.db #0x00	; 0
	.db #0x00	; 0
	.db #0x00	; 0
	.db #0x00	; 0
	.db #0x00	; 0
	.db #0x00	; 0
	.db #0x00	; 0
	.db #0x00	; 0
	.db #0x01	; 1
	.db #0x01	; 1
	.db #0x03	; 3
	.db #0x01	; 1
	.db #0x0f	; 15
	.db #0x0f	; 15
	.db #0x3f	; 63
	.db #0x1f	; 31
	.db #0x7e	; 126
	.db #0x3c	; 60
	.db #0x7e	; 126
	.db #0x3c	; 60
	.db #0xfe	; 254
	.db #0x7e	; 126
	.db #0xff	; 255
	.db #0xff	; 255
	.db #0xef	; 239
	.db #0xc7	; 199
	.db #0xc7	; 199
	.db #0x83	; 131
	.db #0xf0	; 240
	.db #0xe0	; 224
	.db #0xe0	; 224
	.db #0xc0	; 192
	.db #0x00	; 0
	.db #0x00	; 0
	.db #0x00	; 0
	.db #0x00	; 0
	.db #0x00	; 0
	.db #0x00	; 0
	.db #0x00	; 0
	.db #0x00	; 0
	.db #0x80	; 128
	.db #0x00	; 0
	.db #0x80	; 128
	.db #0x80	; 128
	.db #0x03	; 3
	.db #0x03	; 3
	.db #0x07	; 7
	.db #0x07	; 7
	.db #0x0e	; 14
	.db #0x04	; 4
	.db #0x0c	; 12
	.db #0x08	; 8
	.db #0x18	; 24
	.db #0x08	; 8
	.db #0x18	; 24
	.db #0x10	; 16
	.db #0x38	; 56	'8'
	.db #0x18	; 24
	.db #0x3c	; 60
	.db #0x1c	; 28
	.db #0x81	; 129
	.db #0x80	; 128
	.db #0x81	; 129
	.db #0x01	; 1
	.db #0x01	; 1
	.db #0x01	; 1
	.db #0x03	; 3
	.db #0x01	; 1
	.db #0x03	; 3
	.db #0x00	; 0
	.db #0x03	; 3
	.db #0x02	; 2
	.db #0x07	; 7
	.db #0x03	; 3
	.db #0x07	; 7
	.db #0x03	; 3
	.db #0xc0	; 192
	.db #0xc0	; 192
	.db #0xc0	; 192
	.db #0x80	; 128
	.db #0x80	; 128
	.db #0x00	; 0
	.db #0x80	; 128
	.db #0x00	; 0
	.db #0x00	; 0
	.db #0x00	; 0
	.db #0x00	; 0
	.db #0x00	; 0
	.db #0x00	; 0
	.db #0x00	; 0
	.db #0x80	; 128
	.db #0x80	; 128
	.db #0x03	; 3
	.db #0x03	; 3
	.db #0x0f	; 15
	.db #0x06	; 6
	.db #0x0e	; 14
	.db #0x0c	; 12
	.db #0x1c	; 28
	.db #0x08	; 8
	.db #0x18	; 24
	.db #0x10	; 16
	.db #0x38	; 56	'8'
	.db #0x10	; 16
	.db #0x38	; 56	'8'
	.db #0x30	; 48	'0'
	.db #0x3c	; 60
	.db #0x38	; 56	'8'
	.db #0x81	; 129
	.db #0x80	; 128
	.db #0x01	; 1
	.db #0x01	; 1
	.db #0x03	; 3
	.db #0x01	; 1
	.db #0x03	; 3
	.db #0x03	; 3
	.db #0x03	; 3
	.db #0x02	; 2
	.db #0x06	; 6
	.db #0x02	; 2
	.db #0x06	; 6
	.db #0x06	; 6
	.db #0x0f	; 15
	.db #0x07	; 7
	.db #0xc0	; 192
	.db #0xc0	; 192
	.db #0xc0	; 192
	.db #0x80	; 128
	.db #0x80	; 128
	.db #0x00	; 0
	.db #0x00	; 0
	.db #0x00	; 0
	.db #0x00	; 0
	.db #0x00	; 0
	.db #0x00	; 0
	.db #0x00	; 0
	.db #0x00	; 0
	.db #0x00	; 0
	.db #0x80	; 128
	.db #0x00	; 0
	.db #0x07	; 7
	.db #0x03	; 3
	.db #0x0f	; 15
	.db #0x06	; 6
	.db #0x0e	; 14
	.db #0x0c	; 12
	.db #0x1c	; 28
	.db #0x08	; 8
	.db #0x18	; 24
	.db #0x10	; 16
	.db #0x30	; 48	'0'
	.db #0x30	; 48	'0'
	.db #0x70	; 112	'p'
	.db #0x30	; 48	'0'
	.db #0x78	; 120	'x'
	.db #0x38	; 56	'8'
	.db #0x81	; 129
	.db #0x81	; 129
	.db #0x03	; 3
	.db #0x01	; 1
	.db #0x03	; 3
	.db #0x03	; 3
	.db #0x03	; 3
	.db #0x02	; 2
	.db #0x07	; 7
	.db #0x02	; 2
	.db #0x06	; 6
	.db #0x04	; 4
	.db #0x0e	; 14
	.db #0x04	; 4
	.db #0x0f	; 15
	.db #0x07	; 7
	.db #0x07	; 7
	.db #0x03	; 3
	.db #0x0f	; 15
	.db #0x06	; 6
	.db #0x1e	; 30
	.db #0x0c	; 12
	.db #0x1c	; 28
	.db #0x18	; 24
	.db #0x38	; 56	'8'
	.db #0x10	; 16
	.db #0x30	; 48	'0'
	.db #0x30	; 48	'0'
	.db #0x70	; 112	'p'
	.db #0x30	; 48	'0'
	.db #0x78	; 120	'x'
	.db #0x30	; 48	'0'
	.db #0x83	; 131
	.db #0x01	; 1
	.db #0x03	; 3
	.db #0x01	; 1
	.db #0x03	; 3
	.db #0x03	; 3
	.db #0x07	; 7
	.db #0x02	; 2
	.db #0x06	; 6
	.db #0x04	; 4
	.db #0x0e	; 14
	.db #0x04	; 4
	.db #0x0e	; 14
	.db #0x04	; 4
	.db #0x0f	; 15
	.db #0x0e	; 14
	.db #0xc0	; 192
	.db #0x80	; 128
	.db #0x80	; 128
	.db #0x80	; 128
	.db #0x80	; 128
	.db #0x00	; 0
	.db #0x00	; 0
	.db #0x00	; 0
	.db #0x00	; 0
	.db #0x00	; 0
	.db #0x00	; 0
	.db #0x00	; 0
	.db #0x00	; 0
	.db #0x00	; 0
	.db #0x00	; 0
	.db #0x00	; 0
	.db #0x07	; 7
	.db #0x03	; 3
	.db #0x0f	; 15
	.db #0x0e	; 14
	.db #0x1c	; 28
	.db #0x0c	; 12
	.db #0x18	; 24
	.db #0x18	; 24
	.db #0x30	; 48	'0'
	.db #0x10	; 16
	.db #0x70	; 112	'p'
	.db #0x20	; 32
	.db #0x70	; 112	'p'
	.db #0x30	; 48	'0'
	.db #0x78	; 120	'x'
	.db #0x30	; 48	'0'
	.db #0x83	; 131
	.db #0x01	; 1
	.db #0x03	; 3
	.db #0x03	; 3
	.db #0x07	; 7
	.db #0x02	; 2
	.db #0x07	; 7
	.db #0x06	; 6
	.db #0x0e	; 14
	.db #0x04	; 4
	.db #0x0c	; 12
	.db #0x00	; 0
	.db #0x0c	; 12
	.db #0x0c	; 12
	.db #0x1f	; 31
	.db #0x0e	; 14
	.db #0x80	; 128
	.db #0x80	; 128
	.db #0x80	; 128
	.db #0x00	; 0
	.db #0x00	; 0
	.db #0x00	; 0
	.db #0x00	; 0
	.db #0x00	; 0
	.db #0x00	; 0
	.db #0x00	; 0
	.db #0x00	; 0
	.db #0x00	; 0
	.db #0x00	; 0
	.db #0x00	; 0
	.db #0x00	; 0
	.db #0x00	; 0
_TILESETWALKER_126_150:
	.db #0x00	; 0
	.db #0x00	; 0
	.db #0x00	; 0
	.db #0x00	; 0
	.db #0x00	; 0
	.db #0x00	; 0
	.db #0x00	; 0
	.db #0x00	; 0
	.db #0x00	; 0
	.db #0x00	; 0
	.db #0x00	; 0
	.db #0x00	; 0
	.db #0x00	; 0
	.db #0x00	; 0
	.db #0x00	; 0
	.db #0x00	; 0
	.db #0x00	; 0
	.db #0x00	; 0
	.db #0x00	; 0
	.db #0x00	; 0
	.db #0x00	; 0
	.db #0x00	; 0
	.db #0x00	; 0
	.db #0x00	; 0
	.db #0x01	; 1
	.db #0x01	; 1
	.db #0x07	; 7
	.db #0x03	; 3
	.db #0x0f	; 15
	.db #0x07	; 7
	.db #0x0f	; 15
	.db #0x07	; 7
	.db #0x00	; 0
	.db #0x00	; 0
	.db #0x00	; 0
	.db #0x00	; 0
	.db #0x1c	; 28
	.db #0x08	; 8
	.db #0x1e	; 30
	.db #0x1c	; 28
	.db #0xfe	; 254
	.db #0xfc	; 252
	.db #0xfc	; 252
	.db #0xf8	; 248
	.db #0xf8	; 248
	.db #0xe0	; 224
	.db #0xe0	; 224
	.db #0xe0	; 224
	.db #0x00	; 0
	.db #0x00	; 0
	.db #0x00	; 0
	.db #0x00	; 0
	.db #0x00	; 0
	.db #0x00	; 0
	.db #0x00	; 0
	.db #0x00	; 0
	.db #0x01	; 1
	.db #0x00	; 0
	.db #0x07	; 7
	.db #0x03	; 3
	.db #0x07	; 7
	.db #0x07	; 7
	.db #0x0f	; 15
	.db #0x07	; 7
	.db #0x00	; 0
	.db #0x00	; 0
	.db #0x00	; 0
	.db #0x00	; 0
	.db #0x0c	; 12
	.db #0x08	; 8
	.db #0x1e	; 30
	.db #0x0c	; 12
	.db #0xfe	; 254
	.db #0xfc	; 252
	.db #0xfc	; 252
	.db #0xf8	; 248
	.db #0xf8	; 248
	.db #0xe0	; 224
	.db #0xf0	; 240
	.db #0xe0	; 224
	.db #0x00	; 0
	.db #0x00	; 0
	.db #0x00	; 0
	.db #0x00	; 0
	.db #0x0c	; 12
	.db #0x00	; 0
	.db #0x1e	; 30
	.db #0x0c	; 12
	.db #0xfe	; 254
	.db #0xfc	; 252
	.db #0xfc	; 252
	.db #0xf8	; 248
	.db #0xf8	; 248
	.db #0xe0	; 224
	.db #0xe0	; 224
	.db #0xe0	; 224
	.db #0x00	; 0
	.db #0x00	; 0
	.db #0x00	; 0
	.db #0x00	; 0
	.db #0x00	; 0
	.db #0x00	; 0
	.db #0x00	; 0
	.db #0x00	; 0
	.db #0x01	; 1
	.db #0x00	; 0
	.db #0x03	; 3
	.db #0x03	; 3
	.db #0x07	; 7
	.db #0x07	; 7
	.db #0x0f	; 15
	.db #0x07	; 7
	.db #0x00	; 0
	.db #0x00	; 0
	.db #0x00	; 0
	.db #0x00	; 0
	.db #0x0c	; 12
	.db #0x00	; 0
	.db #0x1e	; 30
	.db #0x0c	; 12
	.db #0xfe	; 254
	.db #0xfc	; 252
	.db #0xfc	; 252
	.db #0xfc	; 252
	.db #0xf8	; 248
	.db #0xe0	; 224
	.db #0xf0	; 240
	.db #0xe0	; 224
	.db #0x00	; 0
	.db #0x00	; 0
	.db #0x00	; 0
	.db #0x00	; 0
	.db #0x0c	; 12
	.db #0x00	; 0
	.db #0x1e	; 30
	.db #0x0c	; 12
	.db #0xfe	; 254
	.db #0xfc	; 252
	.db #0xfc	; 252
	.db #0xf8	; 248
	.db #0xf8	; 248
	.db #0xe0	; 224
	.db #0xf0	; 240
	.db #0xe0	; 224
	.db #0x00	; 0
	.db #0x00	; 0
	.db #0x00	; 0
	.db #0x00	; 0
	.db #0x00	; 0
	.db #0x00	; 0
	.db #0x00	; 0
	.db #0x00	; 0
	.db #0x00	; 0
	.db #0x00	; 0
	.db #0x01	; 1
	.db #0x00	; 0
	.db #0x01	; 1
	.db #0x01	; 1
	.db #0x03	; 3
	.db #0x01	; 1
	.db #0x1f	; 31
	.db #0x0f	; 15
	.db #0x3f	; 63
	.db #0x1f	; 31
	.db #0x7e	; 126
	.db #0x3c	; 60
	.db #0x7c	; 124
	.db #0x7c	; 124
	.db #0xfe	; 254
	.db #0x7e	; 126
	.db #0xff	; 255
	.db #0xfe	; 254
	.db #0xef	; 239
	.db #0xc7	; 199
	.db #0xc7	; 199
	.db #0x83	; 131
	.db #0xf0	; 240
	.db #0xe0	; 224
	.db #0xe0	; 224
	.db #0x80	; 128
	.db #0x00	; 0
	.db #0x00	; 0
	.db #0x00	; 0
	.db #0x00	; 0
	.db #0x00	; 0
	.db #0x00	; 0
	.db #0x00	; 0
	.db #0x00	; 0
	.db #0x00	; 0
	.db #0x00	; 0
	.db #0x80	; 128
	.db #0x00	; 0
	.db #0x0f	; 15
	.db #0x0f	; 15
	.db #0x3f	; 63
	.db #0x1e	; 30
	.db #0x7e	; 126
	.db #0x3c	; 60
	.db #0x7e	; 126
	.db #0x3c	; 60
	.db #0xfe	; 254
	.db #0x7e	; 126
	.db #0xff	; 255
	.db #0xfe	; 254
	.db #0xef	; 239
	.db #0xc7	; 199
	.db #0xc7	; 199
	.db #0x83	; 131
	.db #0xf0	; 240
	.db #0xe0	; 224
	.db #0xc0	; 192
	.db #0x00	; 0
	.db #0x00	; 0
	.db #0x00	; 0
	.db #0x00	; 0
	.db #0x00	; 0
	.db #0x00	; 0
	.db #0x00	; 0
	.db #0x00	; 0
	.db #0x00	; 0
	.db #0x00	; 0
	.db #0x00	; 0
	.db #0x80	; 128
	.db #0x00	; 0
	.db #0x00	; 0
	.db #0x00	; 0
	.db #0x00	; 0
	.db #0x00	; 0
	.db #0x00	; 0
	.db #0x00	; 0
	.db #0x00	; 0
	.db #0x00	; 0
	.db #0x00	; 0
	.db #0x00	; 0
	.db #0x01	; 1
	.db #0x00	; 0
	.db #0x01	; 1
	.db #0x01	; 1
	.db #0x03	; 3
	.db #0x03	; 3
	.db #0x1f	; 31
	.db #0x0f	; 15
	.db #0x3f	; 63
	.db #0x1e	; 30
	.db #0x7e	; 126
	.db #0x3c	; 60
	.db #0x7c	; 124
	.db #0x7c	; 124
	.db #0xfe	; 254
	.db #0x7c	; 124
	.db #0xfe	; 254
	.db #0xfe	; 254
	.db #0xef	; 239
	.db #0xc7	; 199
	.db #0xc7	; 199
	.db #0x87	; 135
	.db #0xe0	; 224
	.db #0xe0	; 224
	.db #0xc0	; 192
	.db #0x00	; 0
	.db #0x00	; 0
	.db #0x00	; 0
	.db #0x00	; 0
	.db #0x00	; 0
	.db #0x00	; 0
	.db #0x00	; 0
	.db #0x00	; 0
	.db #0x00	; 0
	.db #0x00	; 0
	.db #0x00	; 0
	.db #0x00	; 0
	.db #0x00	; 0
	.db #0x1f	; 31
	.db #0x0f	; 15
	.db #0x3f	; 63
	.db #0x1e	; 30
	.db #0x7e	; 126
	.db #0x3c	; 60
	.db #0x7c	; 124
	.db #0x7c	; 124
	.db #0xfe	; 254
	.db #0x7c	; 124
	.db #0xfe	; 254
	.db #0xfe	; 254
	.db #0xef	; 239
	.db #0xce	; 206
	.db #0xc7	; 199
	.db #0x87	; 135
	.db #0xf0	; 240
	.db #0xe0	; 224
	.db #0xc0	; 192
	.db #0x00	; 0
	.db #0x00	; 0
	.db #0x00	; 0
	.db #0x00	; 0
	.db #0x00	; 0
	.db #0x00	; 0
	.db #0x00	; 0
	.db #0x00	; 0
	.db #0x00	; 0
	.db #0x00	; 0
	.db #0x00	; 0
	.db #0x00	; 0
	.db #0x00	; 0
	.db #0x1f	; 31
	.db #0x0f	; 15
	.db #0x3f	; 63
	.db #0x3e	; 62
	.db #0x7e	; 126
	.db #0x3c	; 60
	.db #0x7c	; 124
	.db #0x7c	; 124
	.db #0xfc	; 252
	.db #0x7c	; 124
	.db #0xfe	; 254
	.db #0xfe	; 254
	.db #0xee	; 238
	.db #0xce	; 206
	.db #0xcf	; 207
	.db #0x86	; 134
	.db #0xf0	; 240
	.db #0xe0	; 224
	.db #0x80	; 128
	.db #0x00	; 0
	.db #0x00	; 0
	.db #0x00	; 0
	.db #0x00	; 0
	.db #0x00	; 0
	.db #0x00	; 0
	.db #0x00	; 0
	.db #0x00	; 0
	.db #0x00	; 0
	.db #0x00	; 0
	.db #0x00	; 0
	.db #0x00	; 0
	.db #0x00	; 0
	.db #0x07	; 7
	.db #0x07	; 7
	.db #0x0f	; 15
	.db #0x0e	; 14
	.db #0x1c	; 28
	.db #0x08	; 8
	.db #0x18	; 24
	.db #0x10	; 16
	.db #0x30	; 48	'0'
	.db #0x00	; 0
	.db #0x70	; 112	'p'
	.db #0x60	; 96
	.db #0x70	; 112	'p'
	.db #0x20	; 32
	.db #0x70	; 112	'p'
	.db #0x30	; 48	'0'
	.db #0x83	; 131
	.db #0x01	; 1
	.db #0x03	; 3
	.db #0x03	; 3
	.db #0x07	; 7
	.db #0x06	; 6
	.db #0x0e	; 14
	.db #0x04	; 4
	.db #0x0c	; 12
	.db #0x04	; 4
	.db #0x0c	; 12
	.db #0x08	; 8
	.db #0x1c	; 28
	.db #0x08	; 8
	.db #0x1e	; 30
	.db #0x1c	; 28
	.db #0x80	; 128
	.db #0x80	; 128
	.db #0x80	; 128
	.db #0x00	; 0
	.db #0x00	; 0
	.db #0x00	; 0
	.db #0x00	; 0
	.db #0x00	; 0
	.db #0x00	; 0
	.db #0x00	; 0
	.db #0x00	; 0
	.db #0x00	; 0
	.db #0x00	; 0
	.db #0x00	; 0
	.db #0x00	; 0
	.db #0x00	; 0
	.db #0x07	; 7
	.db #0x07	; 7
	.db #0x0f	; 15
	.db #0x0e	; 14
	.db #0x1c	; 28
	.db #0x08	; 8
	.db #0x38	; 56	'8'
	.db #0x10	; 16
	.db #0x30	; 48	'0'
	.db #0x20	; 32
	.db #0x70	; 112	'p'
	.db #0x60	; 96
	.db #0x60	; 96
	.db #0x20	; 32
	.db #0x70	; 112	'p'
	.db #0x20	; 32
	.db #0x83	; 131
	.db #0x03	; 3
	.db #0x07	; 7
	.db #0x03	; 3
	.db #0x07	; 7
	.db #0x06	; 6
	.db #0x0e	; 14
	.db #0x04	; 4
	.db #0x0c	; 12
	.db #0x08	; 8
	.db #0x1c	; 28
	.db #0x08	; 8
	.db #0x18	; 24
	.db #0x18	; 24
	.db #0x3e	; 62
	.db #0x1c	; 28
	.db #0x80	; 128
	.db #0x00	; 0
	.db #0x80	; 128
	.db #0x00	; 0
	.db #0x00	; 0
	.db #0x00	; 0
	.db #0x00	; 0
	.db #0x00	; 0
	.db #0x00	; 0
	.db #0x00	; 0
	.db #0x00	; 0
	.db #0x00	; 0
	.db #0x00	; 0
	.db #0x00	; 0
	.db #0x00	; 0
	.db #0x00	; 0
	.db #0x0f	; 15
	.db #0x07	; 7
	.db #0x0e	; 14
	.db #0x0c	; 12
	.db #0x1c	; 28
	.db #0x18	; 24
	.db #0x38	; 56	'8'
	.db #0x10	; 16
	.db #0x70	; 112	'p'
	.db #0x20	; 32
	.db #0x60	; 96
	.db #0x60	; 96
	.db #0x60	; 96
	.db #0x60	; 96
	.db #0x70	; 112	'p'
	.db #0x20	; 32
	.db #0x87	; 135
	.db #0x03	; 3
	.db #0x07	; 7
	.db #0x03	; 3
	.db #0x0f	; 15
	.db #0x06	; 6
	.db #0x0e	; 14
	.db #0x0c	; 12
	.db #0x1c	; 28
	.db #0x08	; 8
	.db #0x18	; 24
	.db #0x10	; 16
	.db #0x38	; 56	'8'
	.db #0x10	; 16
	.db #0x3e	; 62
	.db #0x1c	; 28
	.db #0x80	; 128
	.db #0x00	; 0
	.db #0x00	; 0
	.db #0x00	; 0
	.db #0x00	; 0
	.db #0x00	; 0
	.db #0x00	; 0
	.db #0x00	; 0
	.db #0x00	; 0
	.db #0x00	; 0
	.db #0x00	; 0
	.db #0x00	; 0
	.db #0x00	; 0
	.db #0x00	; 0
	.db #0x00	; 0
	.db #0x00	; 0
	.db #0x0f	; 15
	.db #0x07	; 7
	.db #0x1e	; 30
	.db #0x0c	; 12
	.db #0x1c	; 28
	.db #0x18	; 24
	.db #0x38	; 56	'8'
	.db #0x10	; 16
	.db #0x70	; 112	'p'
	.db #0x20	; 32
	.db #0x60	; 96
	.db #0x60	; 96
	.db #0x60	; 96
	.db #0x60	; 96
	.db #0x60	; 96
	.db #0x20	; 32
	.db #0x87	; 135
	.db #0x03	; 3
	.db #0x07	; 7
	.db #0x06	; 6
	.db #0x0e	; 14
	.db #0x04	; 4
	.db #0x1c	; 28
	.db #0x0c	; 12
	.db #0x1c	; 28
	.db #0x08	; 8
	.db #0x18	; 24
	.db #0x10	; 16
	.db #0x38	; 56	'8'
	.db #0x10	; 16
	.db #0x3c	; 60
	.db #0x38	; 56	'8'
	.db #0x0f	; 15
	.db #0x07	; 7
	.db #0x1e	; 30
	.db #0x0c	; 12
	.db #0x1c	; 28
	.db #0x18	; 24
	.db #0x38	; 56	'8'
	.db #0x10	; 16
	.db #0x70	; 112	'p'
	.db #0x20	; 32
	.db #0xe0	; 224
	.db #0x60	; 96
	.db #0x60	; 96
	.db #0x40	; 64
	.db #0x60	; 96
	.db #0x40	; 64
	.db #0x87	; 135
	.db #0x03	; 3
	.db #0x0f	; 15
	.db #0x06	; 6
	.db #0x0e	; 14
	.db #0x0c	; 12
	.db #0x1c	; 28
	.db #0x08	; 8
	.db #0x18	; 24
	.db #0x10	; 16
	.db #0x30	; 48	'0'
	.db #0x10	; 16
	.db #0x30	; 48	'0'
	.db #0x30	; 48	'0'
	.db #0x7c	; 124
	.db #0x38	; 56	'8'
	.db #0x00	; 0
	.db #0x00	; 0
	.db #0x00	; 0
	.db #0x00	; 0
	.db #0x00	; 0
	.db #0x00	; 0
	.db #0x00	; 0
	.db #0x00	; 0
	.db #0x00	; 0
	.db #0x00	; 0
	.db #0x03	; 3
	.db #0x01	; 1
	.db #0x07	; 7
	.db #0x03	; 3
	.db #0x0f	; 15
	.db #0x07	; 7
	.db #0x00	; 0
	.db #0x00	; 0
	.db #0x00	; 0
	.db #0x00	; 0
	.db #0x0c	; 12
	.db #0x00	; 0
	.db #0x1e	; 30
	.db #0x0e	; 14
	.db #0xfe	; 254
	.db #0xfc	; 252
	.db #0xfc	; 252
	.db #0xfc	; 252
	.db #0xf8	; 248
	.db #0xf0	; 240
	.db #0xf0	; 240
	.db #0xe0	; 224
	.db #0x00	; 0
	.db #0x00	; 0
	.db #0x00	; 0
	.db #0x00	; 0
	.db #0x00	; 0
	.db #0x00	; 0
	.db #0x00	; 0
	.db #0x00	; 0
	.db #0x01	; 1
	.db #0x00	; 0
	.db #0x03	; 3
	.db #0x01	; 1
	.db #0x07	; 7
	.db #0x03	; 3
	.db #0x0f	; 15
	.db #0x07	; 7
	.db #0x00	; 0
	.db #0x00	; 0
	.db #0x00	; 0
	.db #0x00	; 0
	.db #0x0c	; 12
	.db #0x08	; 8
	.db #0x1e	; 30
	.db #0x0e	; 14
	.db #0xfe	; 254
	.db #0xfc	; 252
	.db #0xfc	; 252
	.db #0xf8	; 248
	.db #0xf8	; 248
	.db #0xf0	; 240
	.db #0xf0	; 240
	.db #0xe0	; 224
	.db #0x00	; 0
	.db #0x00	; 0
	.db #0x00	; 0
	.db #0x00	; 0
	.db #0x00	; 0
	.db #0x00	; 0
	.db #0x00	; 0
	.db #0x00	; 0
	.db #0x01	; 1
	.db #0x00	; 0
	.db #0x03	; 3
	.db #0x03	; 3
	.db #0x07	; 7
	.db #0x03	; 3
	.db #0x0f	; 15
	.db #0x07	; 7
	.db #0x00	; 0
	.db #0x00	; 0
	.db #0x00	; 0
	.db #0x00	; 0
	.db #0x0c	; 12
	.db #0x0c	; 12
	.db #0x1e	; 30
	.db #0x0e	; 14
	.db #0xfe	; 254
	.db #0xfc	; 252
	.db #0xfc	; 252
	.db #0xf8	; 248
	.db #0xf0	; 240
	.db #0xe0	; 224
	.db #0xf0	; 240
	.db #0xe0	; 224
	.db #0x00	; 0
	.db #0x00	; 0
	.db #0x00	; 0
	.db #0x00	; 0
	.db #0x00	; 0
	.db #0x00	; 0
	.db #0x00	; 0
	.db #0x00	; 0
	.db #0x01	; 1
	.db #0x01	; 1
	.db #0x03	; 3
	.db #0x03	; 3
	.db #0x07	; 7
	.db #0x03	; 3
	.db #0x0f	; 15
	.db #0x07	; 7
	.db #0x00	; 0
	.db #0x00	; 0
	.db #0x00	; 0
	.db #0x00	; 0
	.db #0x0e	; 14
	.db #0x0e	; 14
	.db #0xfe	; 254
	.db #0x1e	; 30
	.db #0xfe	; 254
	.db #0xfc	; 252
	.db #0xfc	; 252
	.db #0xf8	; 248
	.db #0xf0	; 240
	.db #0xf0	; 240
	.db #0xf0	; 240
	.db #0xf0	; 240
	.db #0x00	; 0
	.db #0x00	; 0
	.db #0x00	; 0
	.db #0x00	; 0
	.db #0x00	; 0
	.db #0x00	; 0
	.db #0x00	; 0
	.db #0x00	; 0
	.db #0x01	; 1
	.db #0x01	; 1
	.db #0x07	; 7
	.db #0x03	; 3
	.db #0x07	; 7
	.db #0x07	; 7
	.db #0x0f	; 15
	.db #0x07	; 7
	.db #0x00	; 0
	.db #0x00	; 0
	.db #0x0c	; 12
	.db #0x00	; 0
	.db #0x1e	; 30
	.db #0x0e	; 14
	.db #0xfe	; 254
	.db #0x5e	; 94
	.db #0xfe	; 254
	.db #0xfc	; 252
	.db #0xfc	; 252
	.db #0xf0	; 240
	.db #0xf0	; 240
	.db #0xe0	; 224
	.db #0xf0	; 240
	.db #0xe0	; 224
	.db #0x00	; 0
	.db #0x00	; 0
	.db #0x00	; 0
	.db #0x00	; 0
	.db #0x00	; 0
	.db #0x00	; 0
	.db #0x00	; 0
	.db #0x00	; 0
	.db #0x00	; 0
	.db #0x00	; 0
	.db #0x00	; 0
	.db #0x00	; 0
	.db #0x01	; 1
	.db #0x00	; 0
	.db #0x01	; 1
	.db #0x00	; 0
	.db #0x1f	; 31
	.db #0x0f	; 15
	.db #0x3f	; 63
	.db #0x1e	; 30
	.db #0x7e	; 126
	.db #0x3c	; 60
	.db #0x7c	; 124
	.db #0x3c	; 60
	.db #0x7c	; 124
	.db #0x7c	; 124
	.db #0xfe	; 254
	.db #0x7e	; 126
	.db #0xfe	; 254
	.db #0xce	; 206
	.db #0xef	; 239
	.db #0xc6	; 198
	.db #0x00	; 0
	.db #0x00	; 0
	.db #0x00	; 0
	.db #0x00	; 0
	.db #0x00	; 0
	.db #0x00	; 0
	.db #0x00	; 0
	.db #0x00	; 0
	.db #0x00	; 0
	.db #0x00	; 0
	.db #0x00	; 0
	.db #0x00	; 0
	.db #0x00	; 0
	.db #0x00	; 0
	.db #0x01	; 1
	.db #0x00	; 0
	.db #0x1f	; 31
	.db #0x0f	; 15
	.db #0x3f	; 63
	.db #0x3e	; 62
	.db #0x7e	; 126
	.db #0x3c	; 60
	.db #0x7c	; 124
	.db #0x3c	; 60
	.db #0x7c	; 124
	.db #0x7c	; 124
	.db #0xfe	; 254
	.db #0x7c	; 124
	.db #0xfe	; 254
	.db #0xfe	; 254
	.db #0xee	; 238
	.db #0xce	; 206
	.db #0xf0	; 240
	.db #0xe0	; 224
	.db #0x00	; 0
	.db #0x00	; 0
	.db #0x00	; 0
	.db #0x00	; 0
	.db #0x00	; 0
	.db #0x00	; 0
	.db #0x00	; 0
	.db #0x00	; 0
	.db #0x00	; 0
	.db #0x00	; 0
	.db #0x00	; 0
	.db #0x00	; 0
	.db #0x00	; 0
	.db #0x00	; 0
	.db #0x1f	; 31
	.db #0x0f	; 15
	.db #0x3f	; 63
	.db #0x3e	; 62
	.db #0x7e	; 126
	.db #0x3c	; 60
	.db #0x7c	; 124
	.db #0x3c	; 60
	.db #0x7c	; 124
	.db #0x3c	; 60
	.db #0x7e	; 126
	.db #0x7c	; 124
	.db #0xfe	; 254
	.db #0x7c	; 124
	.db #0xfe	; 254
	.db #0x7e	; 126
	.db #0xe0	; 224
	.db #0xe0	; 224
	.db #0x00	; 0
	.db #0x00	; 0
	.db #0x00	; 0
	.db #0x00	; 0
	.db #0x00	; 0
	.db #0x00	; 0
	.db #0x00	; 0
	.db #0x00	; 0
	.db #0x00	; 0
	.db #0x00	; 0
	.db #0x00	; 0
	.db #0x00	; 0
	.db #0x00	; 0
	.db #0x00	; 0
	.db #0x1f	; 31
	.db #0x0f	; 15
	.db #0x3f	; 63
	.db #0x1e	; 30
	.db #0x3e	; 62
	.db #0x3c	; 60
	.db #0x3c	; 60
	.db #0x3c	; 60
	.db #0x3c	; 60
	.db #0x3c	; 60
	.db #0x3c	; 60
	.db #0x3c	; 60
	.db #0x3e	; 62
	.db #0x3c	; 60
	.db #0x3e	; 62
	.db #0x3c	; 60
	.db #0xf0	; 240
	.db #0xc0	; 192
	.db #0x00	; 0
	.db #0x00	; 0
	.db #0x00	; 0
	.db #0x00	; 0
	.db #0x00	; 0
	.db #0x00	; 0
	.db #0x00	; 0
	.db #0x00	; 0
	.db #0x00	; 0
	.db #0x00	; 0
	.db #0x00	; 0
	.db #0x00	; 0
	.db #0x00	; 0
	.db #0x00	; 0
	.db #0x1f	; 31
	.db #0x1f	; 31
	.db #0x3e	; 62
	.db #0x3c	; 60
	.db #0x3e	; 62
	.db #0x3c	; 60
	.db #0x3c	; 60
	.db #0x3c	; 60
	.db #0x3c	; 60
	.db #0x1c	; 28
	.db #0x3c	; 60
	.db #0x1c	; 28
	.db #0x3c	; 60
	.db #0x1c	; 28
	.db #0x3c	; 60
	.db #0x1c	; 28
	.db #0xe0	; 224
	.db #0xc0	; 192
	.db #0x00	; 0
	.db #0x00	; 0
	.db #0x00	; 0
	.db #0x00	; 0
	.db #0x00	; 0
	.db #0x00	; 0
	.db #0x00	; 0
	.db #0x00	; 0
	.db #0x00	; 0
	.db #0x00	; 0
	.db #0x00	; 0
	.db #0x00	; 0
	.db #0x00	; 0
	.db #0x00	; 0
	.db #0x03	; 3
	.db #0x03	; 3
	.db #0x0f	; 15
	.db #0x07	; 7
	.db #0x0e	; 14
	.db #0x0c	; 12
	.db #0x1c	; 28
	.db #0x18	; 24
	.db #0x70	; 112	'p'
	.db #0x30	; 48	'0'
	.db #0x70	; 112	'p'
	.db #0x60	; 96
	.db #0x60	; 96
	.db #0x40	; 64
	.db #0x60	; 96
	.db #0x40	; 64
	.db #0xc7	; 199
	.db #0x86	; 134
	.db #0x8f	; 143
	.db #0x06	; 6
	.db #0x1e	; 30
	.db #0x0c	; 12
	.db #0x1c	; 28
	.db #0x18	; 24
	.db #0x38	; 56	'8'
	.db #0x10	; 16
	.db #0x30	; 48	'0'
	.db #0x20	; 32
	.db #0x70	; 112	'p'
	.db #0x20	; 32
	.db #0x78	; 120	'x'
	.db #0x70	; 112	'p'
	.db #0x03	; 3
	.db #0x01	; 1
	.db #0x07	; 7
	.db #0x07	; 7
	.db #0x0f	; 15
	.db #0x0e	; 14
	.db #0x1c	; 28
	.db #0x18	; 24
	.db #0x78	; 120	'x'
	.db #0x70	; 112	'p'
	.db #0x70	; 112	'p'
	.db #0x60	; 96
	.db #0x60	; 96
	.db #0x40	; 64
	.db #0xe0	; 224
	.db #0x40	; 64
	.db #0xce	; 206
	.db #0x86	; 134
	.db #0x8e	; 142
	.db #0x8c	; 140
	.db #0x1c	; 28
	.db #0x08	; 8
	.db #0x38	; 56	'8'
	.db #0x10	; 16
	.db #0x30	; 48	'0'
	.db #0x30	; 48	'0'
	.db #0x70	; 112	'p'
	.db #0x20	; 32
	.db #0x70	; 112	'p'
	.db #0x60	; 96
	.db #0xf8	; 248
	.db #0x70	; 112	'p'
	.db #0x01	; 1
	.db #0x00	; 0
	.db #0x07	; 7
	.db #0x03	; 3
	.db #0x0f	; 15
	.db #0x06	; 6
	.db #0x3e	; 62
	.db #0x08	; 8
	.db #0x78	; 120	'x'
	.db #0x30	; 48	'0'
	.db #0x70	; 112	'p'
	.db #0x20	; 32
	.db #0x60	; 96
	.db #0x00	; 0
	.db #0x60	; 96
	.db #0x40	; 64
	.db #0xfe	; 254
	.db #0xe6	; 230
	.db #0xfe	; 254
	.db #0xec	; 236
	.db #0xbc	; 188
	.db #0x18	; 24
	.db #0x38	; 56	'8'
	.db #0x10	; 16
	.db #0x30	; 48	'0'
	.db #0x20	; 32
	.db #0x60	; 96
	.db #0x00	; 0
	.db #0xe0	; 224
	.db #0x60	; 96
	.db #0xf8	; 248
	.db #0x70	; 112	'p'
	.db #0x00	; 0
	.db #0x00	; 0
	.db #0x03	; 3
	.db #0x01	; 1
	.db #0x07	; 7
	.db #0x07	; 7
	.db #0x3e	; 62
	.db #0x1c	; 28
	.db #0x38	; 56	'8'
	.db #0x10	; 16
	.db #0x30	; 48	'0'
	.db #0x10	; 16
	.db #0x30	; 48	'0'
	.db #0x00	; 0
	.db #0x30	; 48	'0'
	.db #0x00	; 0
	.db #0xfe	; 254
	.db #0x3c	; 60
	.db #0xfc	; 252
	.db #0xfc	; 252
	.db #0xf8	; 248
	.db #0x78	; 120	'x'
	.db #0x70	; 112	'p'
	.db #0x30	; 48	'0'
	.db #0x70	; 112	'p'
	.db #0x20	; 32
	.db #0x60	; 96
	.db #0x40	; 64
	.db #0xe0	; 224
	.db #0x40	; 64
	.db #0xf0	; 240
	.db #0xe0	; 224
	.db #0x00	; 0
	.db #0x00	; 0
	.db #0x01	; 1
	.db #0x01	; 1
	.db #0x0f	; 15
	.db #0x03	; 3
	.db #0x1e	; 30
	.db #0x0c	; 12
	.db #0x18	; 24
	.db #0x08	; 8
	.db #0x18	; 24
	.db #0x00	; 0
	.db #0x18	; 24
	.db #0x00	; 0
	.db #0x11	; 17
	.db #0x00	; 0
	.db #0xfc	; 252
	.db #0x3c	; 60
	.db #0xfc	; 252
	.db #0xf8	; 248
	.db #0xf8	; 248
	.db #0xf0	; 240
	.db #0x70	; 112	'p'
	.db #0x20	; 32
	.db #0x60	; 96
	.db #0x40	; 64
	.db #0xc0	; 192
	.db #0x40	; 64
	.db #0xc0	; 192
	.db #0xc0	; 192
	.db #0xf0	; 240
	.db #0xe0	; 224
	.db #0x00	; 0
	.db #0x00	; 0
	.db #0x00	; 0
	.db #0x00	; 0
	.db #0x00	; 0
	.db #0x00	; 0
	.db #0x01	; 1
	.db #0x00	; 0
	.db #0x03	; 3
	.db #0x01	; 1
	.db #0x07	; 7
	.db #0x07	; 7
	.db #0x07	; 7
	.db #0x07	; 7
	.db #0x0f	; 15
	.db #0x0f	; 15
	.db #0x00	; 0
	.db #0x00	; 0
	.db #0x0c	; 12
	.db #0x0c	; 12
	.db #0x1e	; 30
	.db #0x0e	; 14
	.db #0xfe	; 254
	.db #0xfc	; 252
	.db #0xfc	; 252
	.db #0xf8	; 248
	.db #0xf8	; 248
	.db #0xe0	; 224
	.db #0xf0	; 240
	.db #0xe0	; 224
	.db #0xf0	; 240
	.db #0xe0	; 224
	.db #0x00	; 0
	.db #0x00	; 0
	.db #0x00	; 0
	.db #0x00	; 0
	.db #0x00	; 0
	.db #0x00	; 0
	.db #0x01	; 1
	.db #0x01	; 1
	.db #0x07	; 7
	.db #0x03	; 3
	.db #0x07	; 7
	.db #0x07	; 7
	.db #0x0f	; 15
	.db #0x07	; 7
	.db #0x0f	; 15
	.db #0x0f	; 15
	.db #0x00	; 0
	.db #0x00	; 0
	.db #0x1e	; 30
	.db #0x0c	; 12
	.db #0xfe	; 254
	.db #0x1c	; 28
	.db #0xfc	; 252
	.db #0xfc	; 252
	.db #0xfc	; 252
	.db #0xf8	; 248
	.db #0xf0	; 240
	.db #0xe0	; 224
	.db #0xf0	; 240
	.db #0xf0	; 240
	.db #0xf0	; 240
	.db #0xe0	; 224
	.db #0x0c	; 12
	.db #0x08	; 8
	.db #0x1e	; 30
	.db #0x1c	; 28
	.db #0xfe	; 254
	.db #0xfc	; 252
	.db #0xfc	; 252
	.db #0xf8	; 248
	.db #0xf8	; 248
	.db #0xf0	; 240
	.db #0xf0	; 240
	.db #0xe0	; 224
	.db #0xf0	; 240
	.db #0xf0	; 240
	.db #0xf0	; 240
	.db #0xe0	; 224
	.db #0x00	; 0
	.db #0x00	; 0
	.db #0x00	; 0
	.db #0x00	; 0
	.db #0x00	; 0
	.db #0x00	; 0
	.db #0x03	; 3
	.db #0x01	; 1
	.db #0x07	; 7
	.db #0x07	; 7
	.db #0x07	; 7
	.db #0x07	; 7
	.db #0x0f	; 15
	.db #0x07	; 7
	.db #0x0f	; 15
	.db #0x0f	; 15
	.db #0x1c	; 28
	.db #0x08	; 8
	.db #0x1c	; 28
	.db #0x1c	; 28
	.db #0xfc	; 252
	.db #0xfc	; 252
	.db #0xfc	; 252
	.db #0xf8	; 248
	.db #0xf8	; 248
	.db #0xe0	; 224
	.db #0xf0	; 240
	.db #0xe0	; 224
	.db #0xf0	; 240
	.db #0xf0	; 240
	.db #0xf0	; 240
	.db #0xe0	; 224
	.db #0x00	; 0
	.db #0x00	; 0
	.db #0x00	; 0
	.db #0x00	; 0
	.db #0x01	; 1
	.db #0x00	; 0
	.db #0x03	; 3
	.db #0x01	; 1
	.db #0x07	; 7
	.db #0x07	; 7
	.db #0x0f	; 15
	.db #0x07	; 7
	.db #0x0f	; 15
	.db #0x07	; 7
	.db #0x0f	; 15
	.db #0x0f	; 15
	.db #0x1c	; 28
	.db #0x08	; 8
	.db #0x3c	; 60
	.db #0x1c	; 28
	.db #0xfc	; 252
	.db #0xfc	; 252
	.db #0xfc	; 252
	.db #0xf8	; 248
	.db #0xf0	; 240
	.db #0xe0	; 224
	.db #0xf0	; 240
	.db #0xe0	; 224
	.db #0xf0	; 240
	.db #0xe0	; 224
	.db #0xe0	; 224
	.db #0xc0	; 192
	.db #0x1f	; 31
	.db #0x1e	; 30
	.db #0x3e	; 62
	.db #0x1c	; 28
	.db #0x3e	; 62
	.db #0x3c	; 60
	.db #0x3c	; 60
	.db #0x1c	; 28
	.db #0x3c	; 60
	.db #0x1c	; 28
	.db #0x1c	; 28
	.db #0x1c	; 28
	.db #0x1c	; 28
	.db #0x1c	; 28
	.db #0x1c	; 28
	.db #0x1c	; 28
	.db #0xe0	; 224
	.db #0x80	; 128
	.db #0x00	; 0
	.db #0x00	; 0
	.db #0x00	; 0
	.db #0x00	; 0
	.db #0x00	; 0
	.db #0x00	; 0
	.db #0x00	; 0
	.db #0x00	; 0
	.db #0x00	; 0
	.db #0x00	; 0
	.db #0x00	; 0
	.db #0x00	; 0
	.db #0x00	; 0
	.db #0x00	; 0
	.db #0x1f	; 31
	.db #0x1e	; 30
	.db #0x3e	; 62
	.db #0x1c	; 28
	.db #0x3e	; 62
	.db #0x1c	; 28
	.db #0x3c	; 60
	.db #0x1c	; 28
	.db #0x1c	; 28
	.db #0x1c	; 28
	.db #0x1e	; 30
	.db #0x1c	; 28
	.db #0x1e	; 30
	.db #0x1e	; 30
	.db #0x3e	; 62
	.db #0x1e	; 30
	.db #0xe0	; 224
	.db #0x00	; 0
	.db #0x00	; 0
	.db #0x00	; 0
	.db #0x00	; 0
	.db #0x00	; 0
	.db #0x00	; 0
	.db #0x00	; 0
	.db #0x00	; 0
	.db #0x00	; 0
	.db #0x00	; 0
	.db #0x00	; 0
	.db #0x00	; 0
	.db #0x00	; 0
	.db #0x00	; 0
	.db #0x00	; 0
	.db #0x1f	; 31
	.db #0x1e	; 30
	.db #0x3e	; 62
	.db #0x1e	; 30
	.db #0x3e	; 62
	.db #0x1c	; 28
	.db #0x1e	; 30
	.db #0x1e	; 30
	.db #0x3f	; 63
	.db #0x1e	; 30
	.db #0x3f	; 63
	.db #0x1f	; 31
	.db #0x3f	; 63
	.db #0x1f	; 31
	.db #0x3f	; 63
	.db #0x1f	; 31
	.db #0x00	; 0
	.db #0x00	; 0
	.db #0x00	; 0
	.db #0x00	; 0
	.db #0x00	; 0
	.db #0x00	; 0
	.db #0x00	; 0
	.db #0x00	; 0
	.db #0x00	; 0
	.db #0x00	; 0
	.db #0x00	; 0
	.db #0x00	; 0
	.db #0x80	; 128
	.db #0x00	; 0
	.db #0x80	; 128
	.db #0x00	; 0
	.db #0x1f	; 31
	.db #0x1e	; 30
	.db #0x3e	; 62
	.db #0x1c	; 28
	.db #0x3e	; 62
	.db #0x1e	; 30
	.db #0x3f	; 63
	.db #0x1e	; 30
	.db #0x3f	; 63
	.db #0x1f	; 31
	.db #0x3f	; 63
	.db #0x1f	; 31
	.db #0x3f	; 63
	.db #0x3f	; 63
	.db #0x3f	; 63
	.db #0x3f	; 63
	.db #0x00	; 0
	.db #0x00	; 0
	.db #0x00	; 0
	.db #0x00	; 0
	.db #0x00	; 0
	.db #0x00	; 0
	.db #0x00	; 0
	.db #0x00	; 0
	.db #0x00	; 0
	.db #0x00	; 0
	.db #0x80	; 128
	.db #0x80	; 128
	.db #0x80	; 128
	.db #0x80	; 128
	.db #0x80	; 128
	.db #0x00	; 0
	.db #0x1f	; 31
	.db #0x1e	; 30
	.db #0x3e	; 62
	.db #0x1e	; 30
	.db #0x3f	; 63
	.db #0x1e	; 30
	.db #0x3f	; 63
	.db #0x1f	; 31
	.db #0x3f	; 63
	.db #0x1f	; 31
	.db #0x3f	; 63
	.db #0x3f	; 63
	.db #0x3f	; 63
	.db #0x3f	; 63
	.db #0x7f	; 127
	.db #0x3f	; 63
	.db #0x00	; 0
	.db #0x00	; 0
	.db #0x00	; 0
	.db #0x00	; 0
	.db #0x00	; 0
	.db #0x00	; 0
	.db #0x80	; 128
	.db #0x00	; 0
	.db #0x80	; 128
	.db #0x80	; 128
	.db #0xc0	; 192
	.db #0x80	; 128
	.db #0xc0	; 192
	.db #0x80	; 128
	.db #0x80	; 128
	.db #0x00	; 0
	.db #0x00	; 0
	.db #0x00	; 0
	.db #0x01	; 1
	.db #0x00	; 0
	.db #0x07	; 7
	.db #0x07	; 7
	.db #0x0e	; 14
	.db #0x04	; 4
	.db #0x0c	; 12
	.db #0x04	; 4
	.db #0x04	; 4
	.db #0x00	; 0
	.db #0x05	; 5
	.db #0x00	; 0
	.db #0x01	; 1
	.db #0x00	; 0
	.db #0x7c	; 124
	.db #0x78	; 120	'x'
	.db #0xf8	; 248
	.db #0xf8	; 248
	.db #0xf0	; 240
	.db #0xf0	; 240
	.db #0xf0	; 240
	.db #0x60	; 96
	.db #0xe0	; 224
	.db #0x40	; 64
	.db #0xc0	; 192
	.db #0x80	; 128
	.db #0xc0	; 192
	.db #0x80	; 128
	.db #0xf0	; 240
	.db #0xe0	; 224
	.db #0x00	; 0
	.db #0x00	; 0
	.db #0x00	; 0
	.db #0x00	; 0
	.db #0x03	; 3
	.db #0x03	; 3
	.db #0x03	; 3
	.db #0x03	; 3
	.db #0x03	; 3
	.db #0x03	; 3
	.db #0x03	; 3
	.db #0x01	; 1
	.db #0x01	; 1
	.db #0x01	; 1
	.db #0x03	; 3
	.db #0x01	; 1
	.db #0x7e	; 126
	.db #0x3c	; 60
	.db #0xfc	; 252
	.db #0xf0	; 240
	.db #0xf0	; 240
	.db #0xe0	; 224
	.db #0xe0	; 224
	.db #0xc0	; 192
	.db #0xc0	; 192
	.db #0xc0	; 192
	.db #0xc0	; 192
	.db #0x80	; 128
	.db #0x80	; 128
	.db #0x80	; 128
	.db #0xe0	; 224
	.db #0xc0	; 192
	.db #0x00	; 0
	.db #0x00	; 0
	.db #0x00	; 0
	.db #0x00	; 0
	.db #0x00	; 0
	.db #0x00	; 0
	.db #0x00	; 0
	.db #0x00	; 0
	.db #0x01	; 1
	.db #0x00	; 0
	.db #0x01	; 1
	.db #0x00	; 0
	.db #0x01	; 1
	.db #0x01	; 1
	.db #0x03	; 3
	.db #0x01	; 1
	.db #0x3f	; 63
	.db #0x3c	; 60
	.db #0x78	; 120	'x'
	.db #0x70	; 112	'p'
	.db #0xe0	; 224
	.db #0xc0	; 192
	.db #0xe0	; 224
	.db #0xc0	; 192
	.db #0xc0	; 192
	.db #0xc0	; 192
	.db #0xc0	; 192
	.db #0x80	; 128
	.db #0x80	; 128
	.db #0x80	; 128
	.db #0xe0	; 224
	.db #0xc0	; 192
	.db #0x00	; 0
	.db #0x00	; 0
	.db #0x00	; 0
	.db #0x00	; 0
	.db #0x00	; 0
	.db #0x00	; 0
	.db #0x01	; 1
	.db #0x00	; 0
	.db #0x01	; 1
	.db #0x00	; 0
	.db #0x01	; 1
	.db #0x01	; 1
	.db #0x03	; 3
	.db #0x01	; 1
	.db #0x03	; 3
	.db #0x03	; 3
	.db #0x7e	; 126
	.db #0x3c	; 60
	.db #0xf8	; 248
	.db #0x70	; 112	'p'
	.db #0xf0	; 240
	.db #0xe0	; 224
	.db #0xe0	; 224
	.db #0xe0	; 224
	.db #0xe0	; 224
	.db #0xe0	; 224
	.db #0xa0	; 160
	.db #0x00	; 0
	.db #0x80	; 128
	.db #0x00	; 0
	.db #0xc0	; 192
	.db #0x80	; 128
	.db #0x00	; 0
	.db #0x00	; 0
	.db #0x00	; 0
	.db #0x00	; 0
	.db #0x01	; 1
	.db #0x00	; 0
	.db #0x01	; 1
	.db #0x01	; 1
	.db #0x01	; 1
	.db #0x01	; 1
	.db #0x03	; 3
	.db #0x01	; 1
	.db #0x03	; 3
	.db #0x03	; 3
	.db #0x07	; 7
	.db #0x03	; 3
	.db #0x7e	; 126
	.db #0x7c	; 124
	.db #0xfc	; 252
	.db #0x78	; 120	'x'
	.db #0xf8	; 248
	.db #0xf0	; 240
	.db #0xf8	; 248
	.db #0x90	; 144
	.db #0x98	; 152
	.db #0x10	; 16
	.db #0x08	; 8
	.db #0x00	; 0
	.db #0x00	; 0
	.db #0x00	; 0
	.db #0xc0	; 192
	.db #0x80	; 128
	.db #0x00	; 0
	.db #0x00	; 0
	.db #0x00	; 0
	.db #0x00	; 0
	.db #0x00	; 0
	.db #0x00	; 0
	.db #0x03	; 3
	.db #0x01	; 1
	.db #0x07	; 7
	.db #0x03	; 3
	.db #0x07	; 7
	.db #0x07	; 7
	.db #0x07	; 7
	.db #0x07	; 7
	.db #0x0f	; 15
	.db #0x07	; 7
	.db #0x1c	; 28
	.db #0x0c	; 12
	.db #0x3c	; 60
	.db #0x1c	; 28
	.db #0xfc	; 252
	.db #0xfc	; 252
	.db #0xfc	; 252
	.db #0xf8	; 248
	.db #0xf0	; 240
	.db #0xe0	; 224
	.db #0xf0	; 240
	.db #0xe0	; 224
	.db #0xf0	; 240
	.db #0xf0	; 240
	.db #0xe0	; 224
	.db #0xc0	; 192
	.db #0x00	; 0
	.db #0x00	; 0
	.db #0x00	; 0
	.db #0x00	; 0
	.db #0x00	; 0
	.db #0x00	; 0
	.db #0x03	; 3
	.db #0x01	; 1
	.db #0x07	; 7
	.db #0x07	; 7
	.db #0x0f	; 15
	.db #0x07	; 7
	.db #0x0f	; 15
	.db #0x07	; 7
	.db #0x0f	; 15
	.db #0x07	; 7
	.db #0x1c	; 28
	.db #0x18	; 24
	.db #0x3c	; 60
	.db #0x1c	; 28
	.db #0xfc	; 252
	.db #0xf8	; 248
	.db #0xf8	; 248
	.db #0xf8	; 248
	.db #0xf0	; 240
	.db #0xe0	; 224
	.db #0xf0	; 240
	.db #0xe0	; 224
	.db #0xf0	; 240
	.db #0xe0	; 224
	.db #0xe0	; 224
	.db #0xc0	; 192
	.db #0x00	; 0
	.db #0x00	; 0
	.db #0x00	; 0
	.db #0x00	; 0
	.db #0x00	; 0
	.db #0x00	; 0
	.db #0x03	; 3
	.db #0x01	; 1
	.db #0x07	; 7
	.db #0x03	; 3
	.db #0x0f	; 15
	.db #0x07	; 7
	.db #0x0f	; 15
	.db #0x07	; 7
	.db #0x0f	; 15
	.db #0x07	; 7
	.db #0x00	; 0
	.db #0x00	; 0
	.db #0x00	; 0
	.db #0x00	; 0
	.db #0x00	; 0
	.db #0x00	; 0
	.db #0x01	; 1
	.db #0x01	; 1
	.db #0x07	; 7
	.db #0x03	; 3
	.db #0x0f	; 15
	.db #0x07	; 7
	.db #0x0f	; 15
	.db #0x07	; 7
	.db #0x0f	; 15
	.db #0x07	; 7
	.db #0x1c	; 28
	.db #0x18	; 24
	.db #0x3c	; 60
	.db #0x1c	; 28
	.db #0xfc	; 252
	.db #0x38	; 56	'8'
	.db #0xf8	; 248
	.db #0xf8	; 248
	.db #0xf0	; 240
	.db #0xe0	; 224
	.db #0xf0	; 240
	.db #0xe0	; 224
	.db #0xf0	; 240
	.db #0xe0	; 224
	.db #0xe0	; 224
	.db #0xc0	; 192
	.db #0x00	; 0
	.db #0x00	; 0
	.db #0x00	; 0
	.db #0x00	; 0
	.db #0x00	; 0
	.db #0x00	; 0
	.db #0x01	; 1
	.db #0x00	; 0
	.db #0x03	; 3
	.db #0x01	; 1
	.db #0x07	; 7
	.db #0x07	; 7
	.db #0x07	; 7
	.db #0x07	; 7
	.db #0x07	; 7
	.db #0x07	; 7
	.db #0x08	; 8
	.db #0x00	; 0
	.db #0x1c	; 28
	.db #0x1c	; 28
	.db #0x3c	; 60
	.db #0x1c	; 28
	.db #0xfc	; 252
	.db #0xf8	; 248
	.db #0xf8	; 248
	.db #0xf0	; 240
	.db #0xf0	; 240
	.db #0xe0	; 224
	.db #0xf0	; 240
	.db #0xe0	; 224
	.db #0xe0	; 224
	.db #0xc0	; 192
	.db #0x1f	; 31
	.db #0x0e	; 14
	.db #0x1f	; 31
	.db #0x1e	; 30
	.db #0x1f	; 31
	.db #0x1f	; 31
	.db #0x3f	; 63
	.db #0x1f	; 31
	.db #0x3f	; 63
	.db #0x1b	; 27
	.db #0x39	; 57	'9'
	.db #0x38	; 56	'8'
	.db #0x79	; 121	'y'
	.db #0x31	; 49	'1'
	.db #0x73	; 115	's'
	.db #0x31	; 49	'1'
	.db #0x00	; 0
	.db #0x00	; 0
	.db #0x00	; 0
	.db #0x00	; 0
	.db #0x80	; 128
	.db #0x00	; 0
	.db #0xc0	; 192
	.db #0xc0	; 192
	.db #0xe0	; 224
	.db #0xc0	; 192
	.db #0xe0	; 224
	.db #0xc0	; 192
	.db #0xc0	; 192
	.db #0x80	; 128
	.db #0x80	; 128
	.db #0x00	; 0
	.db #0x1f	; 31
	.db #0x0e	; 14
	.db #0x1f	; 31
	.db #0x1e	; 30
	.db #0x3f	; 63
	.db #0x1f	; 31
	.db #0x3f	; 63
	.db #0x1f	; 31
	.db #0x3f	; 63
	.db #0x19	; 25
	.db #0x39	; 57	'9'
	.db #0x38	; 56	'8'
	.db #0x79	; 121	'y'
	.db #0x30	; 48	'0'
	.db #0x73	; 115	's'
	.db #0x61	; 97	'a'
	.db #0x00	; 0
	.db #0x00	; 0
	.db #0x00	; 0
	.db #0x00	; 0
	.db #0x80	; 128
	.db #0x00	; 0
	.db #0xc0	; 192
	.db #0xc0	; 192
	.db #0xe0	; 224
	.db #0xe0	; 224
	.db #0xe0	; 224
	.db #0xc0	; 192
	.db #0xc0	; 192
	.db #0x80	; 128
	.db #0x80	; 128
	.db #0x80	; 128
	.db #0x1f	; 31
	.db #0x0e	; 14
	.db #0x1f	; 31
	.db #0x1e	; 30
	.db #0x3f	; 63
	.db #0x1f	; 31
	.db #0x3f	; 63
	.db #0x1f	; 31
	.db #0x3f	; 63
	.db #0x3b	; 59
	.db #0x39	; 57	'9'
	.db #0x30	; 48	'0'
	.db #0x79	; 121	'y'
	.db #0x30	; 48	'0'
	.db #0x71	; 113	'q'
	.db #0x60	; 96
	.db #0x00	; 0
	.db #0x00	; 0
	.db #0x00	; 0
	.db #0x00	; 0
	.db #0x80	; 128
	.db #0x00	; 0
	.db #0xc0	; 192
	.db #0xc0	; 192
	.db #0xe0	; 224
	.db #0xe0	; 224
	.db #0xe0	; 224
	.db #0xe0	; 224
	.db #0xe0	; 224
	.db #0xc0	; 192
	.db #0xc0	; 192
	.db #0x80	; 128
	.db #0x1f	; 31
	.db #0x0e	; 14
	.db #0x1f	; 31
	.db #0x1e	; 30
	.db #0x3f	; 63
	.db #0x1f	; 31
	.db #0x3f	; 63
	.db #0x1f	; 31
	.db #0x3f	; 63
	.db #0x3f	; 63
	.db #0x79	; 121	'y'
	.db #0x30	; 48	'0'
	.db #0x78	; 120	'x'
	.db #0x30	; 48	'0'
	.db #0x71	; 113	'q'
	.db #0x60	; 96
	.db #0x00	; 0
	.db #0x00	; 0
	.db #0x00	; 0
	.db #0x00	; 0
	.db #0x00	; 0
	.db #0x00	; 0
	.db #0xc0	; 192
	.db #0x80	; 128
	.db #0xe0	; 224
	.db #0xe0	; 224
	.db #0xe0	; 224
	.db #0xe0	; 224
	.db #0xe0	; 224
	.db #0xc0	; 192
	.db #0xc0	; 192
	.db #0xc0	; 192
	.db #0x0f	; 15
	.db #0x07	; 7
	.db #0x1f	; 31
	.db #0x0e	; 14
	.db #0x1f	; 31
	.db #0x1e	; 30
	.db #0x3f	; 63
	.db #0x1f	; 31
	.db #0x3f	; 63
	.db #0x1f	; 31
	.db #0x3f	; 63
	.db #0x3b	; 59
	.db #0x79	; 121	'y'
	.db #0x30	; 48	'0'
	.db #0x70	; 112	'p'
	.db #0x60	; 96
	.db #0x80	; 128
	.db #0x00	; 0
	.db #0x00	; 0
	.db #0x00	; 0
	.db #0x00	; 0
	.db #0x00	; 0
	.db #0x80	; 128
	.db #0x00	; 0
	.db #0xc0	; 192
	.db #0x80	; 128
	.db #0xe0	; 224
	.db #0xc0	; 192
	.db #0xe0	; 224
	.db #0xe0	; 224
	.db #0xe0	; 224
	.db #0xc0	; 192
	.db #0x00	; 0
	.db #0x00	; 0
	.db #0x00	; 0
	.db #0x00	; 0
	.db #0x01	; 1
	.db #0x00	; 0
	.db #0x01	; 1
	.db #0x01	; 1
	.db #0x03	; 3
	.db #0x01	; 1
	.db #0x03	; 3
	.db #0x02	; 2
	.db #0x07	; 7
	.db #0x02	; 2
	.db #0x07	; 7
	.db #0x03	; 3
	.db #0x73	; 115	's'
	.db #0x62	; 98	'b'
	.db #0xe6	; 230
	.db #0xc4	; 196
	.db #0xce	; 206
	.db #0x84	; 132
	.db #0x8e	; 142
	.db #0x84	; 132
	.db #0x86	; 134
	.db #0x02	; 2
	.db #0x00	; 0
	.db #0x00	; 0
	.db #0x00	; 0
	.db #0x00	; 0
	.db #0xc0	; 192
	.db #0x80	; 128
	.db #0x00	; 0
	.db #0x00	; 0
	.db #0x00	; 0
	.db #0x00	; 0
	.db #0x01	; 1
	.db #0x01	; 1
	.db #0x03	; 3
	.db #0x01	; 1
	.db #0x03	; 3
	.db #0x03	; 3
	.db #0x07	; 7
	.db #0x02	; 2
	.db #0x07	; 7
	.db #0x06	; 6
	.db #0x07	; 7
	.db #0x07	; 7
	.db #0xf3	; 243
	.db #0x61	; 97	'a'
	.db #0xe3	; 227
	.db #0xc2	; 194
	.db #0xc6	; 198
	.db #0x82	; 130
	.db #0x87	; 135
	.db #0x06	; 6
	.db #0x03	; 3
	.db #0x03	; 3
	.db #0x01	; 1
	.db #0x00	; 0
	.db #0x00	; 0
	.db #0x00	; 0
	.db #0x80	; 128
	.db #0x00	; 0
	.db #0x00	; 0
	.db #0x00	; 0
	.db #0x01	; 1
	.db #0x00	; 0
	.db #0x01	; 1
	.db #0x01	; 1
	.db #0x03	; 3
	.db #0x01	; 1
	.db #0x03	; 3
	.db #0x02	; 2
	.db #0x06	; 6
	.db #0x00	; 0
	.db #0x06	; 6
	.db #0x06	; 6
	.db #0x0f	; 15
	.db #0x07	; 7
	.db #0xe1	; 225
	.db #0x61	; 97	'a'
	.db #0xe3	; 227
	.db #0xc1	; 193
	.db #0xc3	; 195
	.db #0x81	; 129
	.db #0x83	; 131
	.db #0x03	; 3
	.db #0x03	; 3
	.db #0x03	; 3
	.db #0x01	; 1
	.db #0x00	; 0
	.db #0x00	; 0
	.db #0x00	; 0
	.db #0x80	; 128
	.db #0x00	; 0
	.db #0x80	; 128
	.db #0x00	; 0
	.db #0x80	; 128
	.db #0x00	; 0
	.db #0x00	; 0
	.db #0x00	; 0
	.db #0x00	; 0
	.db #0x00	; 0
	.db #0x80	; 128
	.db #0x80	; 128
	.db #0xc0	; 192
	.db #0x00	; 0
	.db #0x00	; 0
	.db #0x00	; 0
	.db #0x00	; 0
	.db #0x00	; 0
	.db #0x00	; 0
	.db #0x00	; 0
	.db #0x01	; 1
	.db #0x00	; 0
	.db #0x03	; 3
	.db #0x01	; 1
	.db #0x03	; 3
	.db #0x03	; 3
	.db #0x07	; 7
	.db #0x02	; 2
	.db #0x06	; 6
	.db #0x04	; 4
	.db #0x0e	; 14
	.db #0x04	; 4
	.db #0x0f	; 15
	.db #0x0f	; 15
	.db #0xe1	; 225
	.db #0x60	; 96
	.db #0xe1	; 225
	.db #0xc1	; 193
	.db #0xc1	; 193
	.db #0x81	; 129
	.db #0x83	; 131
	.db #0x01	; 1
	.db #0x03	; 3
	.db #0x03	; 3
	.db #0x03	; 3
	.db #0x01	; 1
	.db #0x00	; 0
	.db #0x00	; 0
	.db #0x00	; 0
	.db #0x00	; 0
	.db #0xc0	; 192
	.db #0x80	; 128
	.db #0x80	; 128
	.db #0x00	; 0
	.db #0x80	; 128
	.db #0x00	; 0
	.db #0x00	; 0
	.db #0x00	; 0
	.db #0x80	; 128
	.db #0x00	; 0
	.db #0xc0	; 192
	.db #0x80	; 128
	.db #0x40	; 64
	.db #0x00	; 0
	.db #0x00	; 0
	.db #0x00	; 0
	.db #0x00	; 0
	.db #0x00	; 0
	.db #0x01	; 1
	.db #0x00	; 0
	.db #0x03	; 3
	.db #0x01	; 1
	.db #0x03	; 3
	.db #0x03	; 3
	.db #0x07	; 7
	.db #0x02	; 2
	.db #0x0e	; 14
	.db #0x04	; 4
	.db #0x0e	; 14
	.db #0x0c	; 12
	.db #0x1f	; 31
	.db #0x0e	; 14
	.db #0xe0	; 224
	.db #0x60	; 96
	.db #0xe1	; 225
	.db #0xc0	; 192
	.db #0xc1	; 193
	.db #0x81	; 129
	.db #0x01	; 1
	.db #0x01	; 1
	.db #0x03	; 3
	.db #0x01	; 1
	.db #0x03	; 3
	.db #0x03	; 3
	.db #0x03	; 3
	.db #0x01	; 1
	.db #0x03	; 3
	.db #0x01	; 1
	.db #0xe0	; 224
	.db #0xc0	; 192
	.db #0xc0	; 192
	.db #0x80	; 128
	.db #0x80	; 128
	.db #0x80	; 128
	.db #0x80	; 128
	.db #0x00	; 0
	.db #0x80	; 128
	.db #0x00	; 0
	.db #0x00	; 0
	.db #0x00	; 0
	.db #0x80	; 128
	.db #0x80	; 128
	.db #0xc0	; 192
	.db #0x80	; 128
	.db #0x00	; 0
	.db #0x00	; 0
	.db #0x00	; 0
	.db #0x00	; 0
	.db #0x00	; 0
	.db #0x00	; 0
	.db #0x00	; 0
	.db #0x00	; 0
	.db #0x01	; 1
	.db #0x01	; 1
	.db #0x07	; 7
	.db #0x03	; 3
	.db #0x07	; 7
	.db #0x07	; 7
	.db #0x07	; 7
	.db #0x07	; 7
	.db #0x08	; 8
	.db #0x00	; 0
	.db #0x1c	; 28
	.db #0x1c	; 28
	.db #0x3c	; 60
	.db #0x1c	; 28
	.db #0xfc	; 252
	.db #0xf8	; 248
	.db #0xf8	; 248
	.db #0xf8	; 248
	.db #0xf0	; 240
	.db #0xe0	; 224
	.db #0xf0	; 240
	.db #0xe0	; 224
	.db #0xe0	; 224
	.db #0xe0	; 224
	.db #0x00	; 0
	.db #0x00	; 0
	.db #0x00	; 0
	.db #0x00	; 0
	.db #0x00	; 0
	.db #0x00	; 0
	.db #0x00	; 0
	.db #0x00	; 0
	.db #0x01	; 1
	.db #0x01	; 1
	.db #0x03	; 3
	.db #0x03	; 3
	.db #0x07	; 7
	.db #0x07	; 7
	.db #0x07	; 7
	.db #0x07	; 7
	.db #0x00	; 0
	.db #0x00	; 0
	.db #0x1c	; 28
	.db #0x1c	; 28
	.db #0x3c	; 60
	.db #0x1c	; 28
	.db #0xfc	; 252
	.db #0x78	; 120	'x'
	.db #0xfc	; 252
	.db #0xf8	; 248
	.db #0xf0	; 240
	.db #0xe0	; 224
	.db #0xf0	; 240
	.db #0xe0	; 224
	.db #0xe0	; 224
	.db #0xe0	; 224
	.db #0x00	; 0
	.db #0x00	; 0
	.db #0x00	; 0
	.db #0x00	; 0
	.db #0x00	; 0
	.db #0x00	; 0
	.db #0x00	; 0
	.db #0x00	; 0
	.db #0x01	; 1
	.db #0x00	; 0
	.db #0x03	; 3
	.db #0x01	; 1
	.db #0x07	; 7
	.db #0x03	; 3
	.db #0x07	; 7
	.db #0x07	; 7
	.db #0x00	; 0
	.db #0x00	; 0
	.db #0x1c	; 28
	.db #0x08	; 8
	.db #0x1c	; 28
	.db #0x1c	; 28
	.db #0xfe	; 254
	.db #0x3c	; 60
	.db #0xfc	; 252
	.db #0xf8	; 248
	.db #0xf8	; 248
	.db #0xf0	; 240
	.db #0xf0	; 240
	.db #0xe0	; 224
	.db #0xf0	; 240
	.db #0xe0	; 224
	.db #0x00	; 0
	.db #0x00	; 0
	.db #0x0c	; 12
	.db #0x00	; 0
	.db #0x1c	; 28
	.db #0x1c	; 28
	.db #0x7e	; 126
	.db #0x1c	; 28
	.db #0xfc	; 252
	.db #0xf8	; 248
	.db #0xf8	; 248
	.db #0xf0	; 240
	.db #0xf0	; 240
	.db #0xe0	; 224
	.db #0xf0	; 240
	.db #0xe0	; 224
	.db #0x00	; 0
	.db #0x00	; 0
	.db #0x0c	; 12
	.db #0x00	; 0
	.db #0x1c	; 28
	.db #0x1c	; 28
	.db #0x3e	; 62
	.db #0x1c	; 28
	.db #0xfc	; 252
	.db #0xf8	; 248
	.db #0xf8	; 248
	.db #0xf0	; 240
	.db #0xf0	; 240
	.db #0xe0	; 224
	.db #0xf0	; 240
	.db #0xe0	; 224
	.db #0x0f	; 15
	.db #0x07	; 7
	.db #0x1f	; 31
	.db #0x0e	; 14
	.db #0x1f	; 31
	.db #0x1e	; 30
	.db #0x3f	; 63
	.db #0x1e	; 30
	.db #0x3f	; 63
	.db #0x3f	; 63
	.db #0x7f	; 127
	.db #0x3f	; 63
	.db #0x7b	; 123
	.db #0x71	; 113	'q'
	.db #0xf1	; 241
	.db #0x60	; 96
	.db #0xc0	; 192
	.db #0x00	; 0
	.db #0x00	; 0
	.db #0x00	; 0
	.db #0x00	; 0
	.db #0x00	; 0
	.db #0x00	; 0
	.db #0x00	; 0
	.db #0x80	; 128
	.db #0x00	; 0
	.db #0xc0	; 192
	.db #0x80	; 128
	.db #0xe0	; 224
	.db #0xc0	; 192
	.db #0xe0	; 224
	.db #0xc0	; 192
	.db #0x0f	; 15
	.db #0x07	; 7
	.db #0x0f	; 15
	.db #0x0e	; 14
	.db #0x1f	; 31
	.db #0x1e	; 30
	.db #0x3f	; 63
	.db #0x1e	; 30
	.db #0x3f	; 63
	.db #0x3f	; 63
	.db #0x7f	; 127
	.db #0x3f	; 63
	.db #0xff	; 255
	.db #0x73	; 115	's'
	.db #0xf1	; 241
	.db #0xe1	; 225
	.db #0xe0	; 224
	.db #0x80	; 128
	.db #0x00	; 0
	.db #0x00	; 0
	.db #0x00	; 0
	.db #0x00	; 0
	.db #0x00	; 0
	.db #0x00	; 0
	.db #0x00	; 0
	.db #0x00	; 0
	.db #0x80	; 128
	.db #0x80	; 128
	.db #0xc0	; 192
	.db #0xc0	; 192
	.db #0xe0	; 224
	.db #0xc0	; 192
	.db #0x0f	; 15
	.db #0x07	; 7
	.db #0x0f	; 15
	.db #0x0f	; 15
	.db #0x1f	; 31
	.db #0x1e	; 30
	.db #0x3e	; 62
	.db #0x1e	; 30
	.db #0x3f	; 63
	.db #0x3f	; 63
	.db #0x7f	; 127
	.db #0x3f	; 63
	.db #0xff	; 255
	.db #0x73	; 115	's'
	.db #0xf3	; 243
	.db #0xe1	; 225
	.db #0xe0	; 224
	.db #0xc0	; 192
	.db #0x80	; 128
	.db #0x00	; 0
	.db #0x00	; 0
	.db #0x00	; 0
	.db #0x00	; 0
	.db #0x00	; 0
	.db #0x00	; 0
	.db #0x00	; 0
	.db #0x80	; 128
	.db #0x00	; 0
	.db #0xc0	; 192
	.db #0x80	; 128
	.db #0xc0	; 192
	.db #0xc0	; 192
	.db #0x0f	; 15
	.db #0x07	; 7
	.db #0x0f	; 15
	.db #0x0f	; 15
	.db #0x1f	; 31
	.db #0x1e	; 30
	.db #0x3e	; 62
	.db #0x1e	; 30
	.db #0x3f	; 63
	.db #0x3e	; 62
	.db #0x7f	; 127
	.db #0x3f	; 63
	.db #0xff	; 255
	.db #0x77	; 119	'w'
	.db #0xf3	; 243
	.db #0xe3	; 227
	.db #0xe0	; 224
	.db #0xc0	; 192
	.db #0x80	; 128
	.db #0x00	; 0
	.db #0x00	; 0
	.db #0x00	; 0
	.db #0x00	; 0
	.db #0x00	; 0
	.db #0x00	; 0
	.db #0x00	; 0
	.db #0x00	; 0
	.db #0x00	; 0
	.db #0x80	; 128
	.db #0x80	; 128
	.db #0xc0	; 192
	.db #0x80	; 128
	.db #0x0f	; 15
	.db #0x07	; 7
	.db #0x0f	; 15
	.db #0x0f	; 15
	.db #0x1f	; 31
	.db #0x1e	; 30
	.db #0x3e	; 62
	.db #0x1e	; 30
	.db #0x3e	; 62
	.db #0x3e	; 62
	.db #0x7f	; 127
	.db #0x7f	; 127
	.db #0xff	; 255
	.db #0x77	; 119	'w'
	.db #0xf7	; 247
	.db #0xe3	; 227
	.db #0xe0	; 224
	.db #0xc0	; 192
	.db #0x80	; 128
	.db #0x00	; 0
	.db #0x00	; 0
	.db #0x00	; 0
	.db #0x00	; 0
	.db #0x00	; 0
	.db #0x00	; 0
	.db #0x00	; 0
	.db #0x00	; 0
	.db #0x00	; 0
	.db #0x80	; 128
	.db #0x00	; 0
	.db #0x80	; 128
	.db #0x80	; 128
	.db #0x01	; 1
	.db #0x00	; 0
	.db #0x03	; 3
	.db #0x01	; 1
	.db #0x03	; 3
	.db #0x03	; 3
	.db #0x07	; 7
	.db #0x02	; 2
	.db #0x0e	; 14
	.db #0x04	; 4
	.db #0x0c	; 12
	.db #0x08	; 8
	.db #0x1c	; 28
	.db #0x0c	; 12
	.db #0x1f	; 31
	.db #0x0e	; 14
	.db #0xe0	; 224
	.db #0xc0	; 192
	.db #0xc1	; 193
	.db #0x80	; 128
	.db #0x81	; 129
	.db #0x01	; 1
	.db #0x03	; 3
	.db #0x01	; 1
	.db #0x03	; 3
	.db #0x01	; 1
	.db #0x03	; 3
	.db #0x02	; 2
	.db #0x07	; 7
	.db #0x03	; 3
	.db #0x07	; 7
	.db #0x03	; 3
	.db #0xe0	; 224
	.db #0xc0	; 192
	.db #0xc0	; 192
	.db #0x80	; 128
	.db #0x80	; 128
	.db #0x80	; 128
	.db #0x80	; 128
	.db #0x00	; 0
	.db #0x00	; 0
	.db #0x00	; 0
	.db #0x00	; 0
	.db #0x00	; 0
	.db #0x00	; 0
	.db #0x00	; 0
	.db #0xc0	; 192
	.db #0x80	; 128
	.db #0x01	; 1
	.db #0x00	; 0
	.db #0x03	; 3
	.db #0x01	; 1
	.db #0x07	; 7
	.db #0x03	; 3
	.db #0x07	; 7
	.db #0x06	; 6
	.db #0x0e	; 14
	.db #0x04	; 4
	.db #0x0c	; 12
	.db #0x08	; 8
	.db #0x1c	; 28
	.db #0x08	; 8
	.db #0x1e	; 30
	.db #0x1c	; 28
	.db #0xe1	; 225
	.db #0xc0	; 192
	.db #0xc1	; 193
	.db #0x81	; 129
	.db #0x03	; 3
	.db #0x01	; 1
	.db #0x03	; 3
	.db #0x01	; 1
	.db #0x03	; 3
	.db #0x02	; 2
	.db #0x07	; 7
	.db #0x02	; 2
	.db #0x07	; 7
	.db #0x02	; 2
	.db #0x07	; 7
	.db #0x07	; 7
	.db #0xe0	; 224
	.db #0xc0	; 192
	.db #0xc0	; 192
	.db #0x80	; 128
	.db #0x80	; 128
	.db #0x80	; 128
	.db #0x80	; 128
	.db #0x00	; 0
	.db #0x00	; 0
	.db #0x00	; 0
	.db #0x00	; 0
	.db #0x00	; 0
	.db #0x00	; 0
	.db #0x00	; 0
	.db #0x80	; 128
	.db #0x00	; 0
	.db #0x01	; 1
	.db #0x00	; 0
	.db #0x03	; 3
	.db #0x03	; 3
	.db #0x07	; 7
	.db #0x03	; 3
	.db #0x0e	; 14
	.db #0x06	; 6
	.db #0x0c	; 12
	.db #0x0c	; 12
	.db #0x1c	; 28
	.db #0x08	; 8
	.db #0x18	; 24
	.db #0x18	; 24
	.db #0x3e	; 62
	.db #0x1c	; 28
	.db #0xe1	; 225
	.db #0xc0	; 192
	.db #0xc1	; 193
	.db #0x81	; 129
	.db #0x83	; 131
	.db #0x01	; 1
	.db #0x03	; 3
	.db #0x03	; 3
	.db #0x07	; 7
	.db #0x02	; 2
	.db #0x06	; 6
	.db #0x00	; 0
	.db #0x06	; 6
	.db #0x06	; 6
	.db #0x0f	; 15
	.db #0x07	; 7
	.db #0xc0	; 192
	.db #0xc0	; 192
	.db #0xc0	; 192
	.db #0x80	; 128
	.db #0x80	; 128
	.db #0x00	; 0
	.db #0x80	; 128
	.db #0x00	; 0
	.db #0x00	; 0
	.db #0x00	; 0
	.db #0x00	; 0
	.db #0x00	; 0
	.db #0x00	; 0
	.db #0x00	; 0
	.db #0x80	; 128
	.db #0x00	; 0
	.db #0x01	; 1
	.db #0x00	; 0
	.db #0x03	; 3
	.db #0x03	; 3
	.db #0x07	; 7
	.db #0x06	; 6
	.db #0x0e	; 14
	.db #0x04	; 4
	.db #0x0c	; 12
	.db #0x08	; 8
	.db #0x18	; 24
	.db #0x08	; 8
	.db #0x18	; 24
	.db #0x18	; 24
	.db #0x3c	; 60
	.db #0x1c	; 28
	.db #0xe1	; 225
	.db #0xc1	; 193
	.db #0xc1	; 193
	.db #0x81	; 129
	.db #0x03	; 3
	.db #0x03	; 3
	.db #0x07	; 7
	.db #0x02	; 2
	.db #0x07	; 7
	.db #0x02	; 2
	.db #0x06	; 6
	.db #0x04	; 4
	.db #0x0e	; 14
	.db #0x04	; 4
	.db #0x0f	; 15
	.db #0x0e	; 14
	.db #0xc0	; 192
	.db #0xc0	; 192
	.db #0xc0	; 192
	.db #0x80	; 128
	.db #0x80	; 128
	.db #0x00	; 0
	.db #0x00	; 0
	.db #0x00	; 0
	.db #0x00	; 0
	.db #0x00	; 0
	.db #0x00	; 0
	.db #0x00	; 0
	.db #0x00	; 0
	.db #0x00	; 0
	.db #0x00	; 0
	.db #0x00	; 0
	.db #0x01	; 1
	.db #0x01	; 1
	.db #0x03	; 3
	.db #0x03	; 3
	.db #0x07	; 7
	.db #0x06	; 6
	.db #0x0e	; 14
	.db #0x04	; 4
	.db #0x1c	; 28
	.db #0x08	; 8
	.db #0x18	; 24
	.db #0x10	; 16
	.db #0x38	; 56	'8'
	.db #0x10	; 16
	.db #0x3c	; 60
	.db #0x38	; 56	'8'
	.db #0xe3	; 227
	.db #0xc1	; 193
	.db #0x83	; 131
	.db #0x81	; 129
	.db #0x03	; 3
	.db #0x03	; 3
	.db #0x07	; 7
	.db #0x02	; 2
	.db #0x06	; 6
	.db #0x04	; 4
	.db #0x0e	; 14
	.db #0x04	; 4
	.db #0x0c	; 12
	.db #0x0c	; 12
	.db #0x1e	; 30
	.db #0x0c	; 12
	.db #0xc0	; 192
	.db #0x80	; 128
	.db #0xc0	; 192
	.db #0x80	; 128
	.db #0x80	; 128
	.db #0x00	; 0
	.db #0x00	; 0
	.db #0x00	; 0
	.db #0x00	; 0
	.db #0x00	; 0
	.db #0x00	; 0
	.db #0x00	; 0
	.db #0x00	; 0
	.db #0x00	; 0
	.db #0x00	; 0
	.db #0x00	; 0
_TILESETSLED:
	.db #0x00	; 0
	.db #0x00	; 0
	.db #0x00	; 0
	.db #0x00	; 0
	.db #0x00	; 0
	.db #0x00	; 0
	.db #0x00	; 0
	.db #0x00	; 0
	.db #0x00	; 0
	.db #0x00	; 0
	.db #0x00	; 0
	.db #0x00	; 0
	.db #0x00	; 0
	.db #0x00	; 0
	.db #0x00	; 0
	.db #0x00	; 0
	.db #0x00	; 0
	.db #0x00	; 0
	.db #0x00	; 0
	.db #0x00	; 0
	.db #0x00	; 0
	.db #0x00	; 0
	.db #0x00	; 0
	.db #0x00	; 0
	.db #0x00	; 0
	.db #0x00	; 0
	.db #0x00	; 0
	.db #0x00	; 0
	.db #0x00	; 0
	.db #0x00	; 0
	.db #0x01	; 1
	.db #0x00	; 0
	.db #0x00	; 0
	.db #0x00	; 0
	.db #0x00	; 0
	.db #0x00	; 0
	.db #0x00	; 0
	.db #0x00	; 0
	.db #0x20	; 32
	.db #0x00	; 0
	.db #0x20	; 32
	.db #0x00	; 0
	.db #0x40	; 64
	.db #0x00	; 0
	.db #0x80	; 128
	.db #0x00	; 0
	.db #0x00	; 0
	.db #0x00	; 0
	.db #0x00	; 0
	.db #0x00	; 0
	.db #0x00	; 0
	.db #0x00	; 0
	.db #0x00	; 0
	.db #0x00	; 0
	.db #0x01	; 1
	.db #0x00	; 0
	.db #0x01	; 1
	.db #0x00	; 0
	.db #0x00	; 0
	.db #0x00	; 0
	.db #0x00	; 0
	.db #0x00	; 0
	.db #0x00	; 0
	.db #0x00	; 0
	.db #0x00	; 0
	.db #0x00	; 0
	.db #0x00	; 0
	.db #0x00	; 0
	.db #0x00	; 0
	.db #0x00	; 0
	.db #0xff	; 255
	.db #0x00	; 0
	.db #0xff	; 255
	.db #0xff	; 255
	.db #0x7c	; 124
	.db #0x38	; 56	'8'
	.db #0x7c	; 124
	.db #0x78	; 120	'x'
	.db #0xfc	; 252
	.db #0x4c	; 76	'L'
	.db #0x00	; 0
	.db #0x00	; 0
	.db #0x00	; 0
	.db #0x00	; 0
	.db #0x00	; 0
	.db #0x00	; 0
	.db #0xff	; 255
	.db #0x00	; 0
	.db #0xff	; 255
	.db #0xff	; 255
	.db #0x58	; 88	'X'
	.db #0x00	; 0
	.db #0x48	; 72	'H'
	.db #0x00	; 0
	.db #0xc8	; 200
	.db #0x00	; 0
	.db #0x00	; 0
	.db #0x00	; 0
	.db #0x00	; 0
	.db #0x00	; 0
	.db #0x03	; 3
	.db #0x01	; 1
	.db #0xff	; 255
	.db #0x07	; 7
	.db #0xff	; 255
	.db #0xfc	; 252
	.db #0xf8	; 248
	.db #0x70	; 112	'p'
	.db #0xf8	; 248
	.db #0x70	; 112	'p'
	.db #0xf8	; 248
	.db #0x78	; 120	'x'
	.db #0x00	; 0
	.db #0x00	; 0
	.db #0xfe	; 254
	.db #0xf8	; 248
	.db #0xff	; 255
	.db #0xce	; 206
	.db #0xc7	; 199
	.db #0x87	; 135
	.db #0xc7	; 199
	.db #0x03	; 3
	.db #0x07	; 7
	.db #0x07	; 7
	.db #0x07	; 7
	.db #0x07	; 7
	.db #0x07	; 7
	.db #0x03	; 3
	.db #0x00	; 0
	.db #0x00	; 0
	.db #0x00	; 0
	.db #0x00	; 0
	.db #0x00	; 0
	.db #0x00	; 0
	.db #0x00	; 0
	.db #0x00	; 0
	.db #0x80	; 128
	.db #0x80	; 128
	.db #0xc0	; 192
	.db #0x80	; 128
	.db #0xc0	; 192
	.db #0x80	; 128
	.db #0xf8	; 248
	.db #0x20	; 32
	.db #0x00	; 0
	.db #0x00	; 0
	.db #0x00	; 0
	.db #0x00	; 0
	.db #0x00	; 0
	.db #0x00	; 0
	.db #0x00	; 0
	.db #0x00	; 0
	.db #0x00	; 0
	.db #0x00	; 0
	.db #0x00	; 0
	.db #0x00	; 0
	.db #0x01	; 1
	.db #0x00	; 0
	.db #0x1c	; 28
	.db #0x08	; 8
	.db #0x02	; 2
	.db #0x00	; 0
	.db #0x04	; 4
	.db #0x00	; 0
	.db #0x08	; 8
	.db #0x00	; 0
	.db #0x10	; 16
	.db #0x00	; 0
	.db #0x40	; 64
	.db #0x00	; 0
	.db #0x00	; 0
	.db #0x00	; 0
	.db #0x80	; 128
	.db #0x00	; 0
	.db #0x00	; 0
	.db #0x00	; 0
	.db #0x00	; 0
	.db #0x00	; 0
	.db #0x01	; 1
	.db #0x00	; 0
	.db #0x03	; 3
	.db #0x01	; 1
	.db #0xff	; 255
	.db #0xff	; 255
	.db #0xff	; 255
	.db #0xff	; 255
	.db #0xff	; 255
	.db #0xff	; 255
	.db #0xff	; 255
	.db #0xff	; 255
	.db #0xff	; 255
	.db #0xff	; 255
	.db #0xec	; 236
	.db #0x4c	; 76	'L'
	.db #0xff	; 255
	.db #0xff	; 255
	.db #0xff	; 255
	.db #0xff	; 255
	.db #0xff	; 255
	.db #0xff	; 255
	.db #0xff	; 255
	.db #0xff	; 255
	.db #0xff	; 255
	.db #0xff	; 255
	.db #0xff	; 255
	.db #0xff	; 255
	.db #0xff	; 255
	.db #0xff	; 255
	.db #0xc8	; 200
	.db #0x00	; 0
	.db #0xff	; 255
	.db #0xff	; 255
	.db #0xff	; 255
	.db #0xff	; 255
	.db #0xff	; 255
	.db #0xff	; 255
	.db #0xff	; 255
	.db #0xff	; 255
	.db #0xff	; 255
	.db #0xff	; 255
	.db #0xff	; 255
	.db #0xff	; 255
	.db #0xff	; 255
	.db #0xff	; 255
	.db #0xf8	; 248
	.db #0x78	; 120	'x'
	.db #0xff	; 255
	.db #0xff	; 255
	.db #0xff	; 255
	.db #0xff	; 255
	.db #0xff	; 255
	.db #0xff	; 255
	.db #0xff	; 255
	.db #0xff	; 255
	.db #0xff	; 255
	.db #0xff	; 255
	.db #0xff	; 255
	.db #0xff	; 255
	.db #0xff	; 255
	.db #0xff	; 255
	.db #0x0f	; 15
	.db #0x06	; 6
	.db #0xfe	; 254
	.db #0xfc	; 252
	.db #0xfe	; 254
	.db #0xfc	; 252
	.db #0xff	; 255
	.db #0xff	; 255
	.db #0xff	; 255
	.db #0xff	; 255
	.db #0xff	; 255
	.db #0xff	; 255
	.db #0xff	; 255
	.db #0xff	; 255
	.db #0xff	; 255
	.db #0xff	; 255
	.db #0x0f	; 15
	.db #0x00	; 0
	.db #0x00	; 0
	.db #0x00	; 0
	.db #0x00	; 0
	.db #0x00	; 0
	.db #0xff	; 255
	.db #0xff	; 255
	.db #0xff	; 255
	.db #0xff	; 255
	.db #0xff	; 255
	.db #0xff	; 255
	.db #0xff	; 255
	.db #0xff	; 255
	.db #0xff	; 255
	.db #0xff	; 255
	.db #0xe0	; 224
	.db #0x00	; 0
	.db #0x00	; 0
	.db #0x00	; 0
	.db #0x00	; 0
	.db #0x00	; 0
	.db #0xff	; 255
	.db #0xff	; 255
	.db #0xff	; 255
	.db #0xff	; 255
	.db #0xff	; 255
	.db #0xff	; 255
	.db #0xff	; 255
	.db #0xff	; 255
	.db #0xff	; 255
	.db #0xff	; 255
	.db #0x00	; 0
	.db #0x00	; 0
	.db #0x00	; 0
	.db #0x00	; 0
	.db #0x00	; 0
	.db #0x00	; 0
	.db #0xff	; 255
	.db #0xff	; 255
	.db #0xff	; 255
	.db #0xff	; 255
	.db #0xff	; 255
	.db #0xff	; 255
	.db #0xff	; 255
	.db #0xff	; 255
	.db #0xff	; 255
	.db #0xff	; 255
	.db #0xff	; 255
	.db #0xff	; 255
	.db #0xff	; 255
	.db #0xff	; 255
	.db #0xff	; 255
	.db #0xff	; 255
	.db #0xff	; 255
	.db #0xff	; 255
	.db #0xff	; 255
	.db #0xff	; 255
	.db #0xff	; 255
	.db #0xff	; 255
	.db #0xff	; 255
	.db #0xff	; 255
	.db #0xff	; 255
	.db #0xff	; 255
;main.c:35: void setSpritePosition(){
;	---------------------------------
; Function setSpritePosition
; ---------------------------------
_setSpritePosition::
;d:/Users/Alexander/Desktop/Gameboy_dev/gbdk/include/gb/gb.h:1218: OAM_item_t * itm = &shadow_OAM[nb];
	ld	hl, #_shadow_OAM
;d:/Users/Alexander/Desktop/Gameboy_dev/gbdk/include/gb/gb.h:1219: itm->y=y, itm->x=x;
	ld	a, #0x4b
	ld	(hl+), a
	ld	(hl), #0x39
;d:/Users/Alexander/Desktop/Gameboy_dev/gbdk/include/gb/gb.h:1218: OAM_item_t * itm = &shadow_OAM[nb];
	ld	hl, #(_shadow_OAM + 0x0004)
;d:/Users/Alexander/Desktop/Gameboy_dev/gbdk/include/gb/gb.h:1219: itm->y=y, itm->x=x;
	ld	a, #0x4b
	ld	(hl+), a
	ld	(hl), #0x41
;d:/Users/Alexander/Desktop/Gameboy_dev/gbdk/include/gb/gb.h:1218: OAM_item_t * itm = &shadow_OAM[nb];
	ld	hl, #(_shadow_OAM + 0x0008)
;d:/Users/Alexander/Desktop/Gameboy_dev/gbdk/include/gb/gb.h:1219: itm->y=y, itm->x=x;
	ld	a, #0x4b
	ld	(hl+), a
	ld	(hl), #0x49
;d:/Users/Alexander/Desktop/Gameboy_dev/gbdk/include/gb/gb.h:1218: OAM_item_t * itm = &shadow_OAM[nb];
	ld	hl, #(_shadow_OAM + 0x000c)
;d:/Users/Alexander/Desktop/Gameboy_dev/gbdk/include/gb/gb.h:1219: itm->y=y, itm->x=x;
	ld	a, #0x53
	ld	(hl+), a
	ld	(hl), #0x39
;d:/Users/Alexander/Desktop/Gameboy_dev/gbdk/include/gb/gb.h:1218: OAM_item_t * itm = &shadow_OAM[nb];
	ld	hl, #(_shadow_OAM + 0x0010)
;d:/Users/Alexander/Desktop/Gameboy_dev/gbdk/include/gb/gb.h:1219: itm->y=y, itm->x=x;
	ld	a, #0x53
	ld	(hl+), a
	ld	(hl), #0x41
;d:/Users/Alexander/Desktop/Gameboy_dev/gbdk/include/gb/gb.h:1218: OAM_item_t * itm = &shadow_OAM[nb];
	ld	hl, #(_shadow_OAM + 0x0014)
;d:/Users/Alexander/Desktop/Gameboy_dev/gbdk/include/gb/gb.h:1219: itm->y=y, itm->x=x;
	ld	a, #0x53
	ld	(hl+), a
	ld	(hl), #0x49
;d:/Users/Alexander/Desktop/Gameboy_dev/gbdk/include/gb/gb.h:1218: OAM_item_t * itm = &shadow_OAM[nb];
	ld	hl, #(_shadow_OAM + 0x0018)
;d:/Users/Alexander/Desktop/Gameboy_dev/gbdk/include/gb/gb.h:1219: itm->y=y, itm->x=x;
	ld	a, #0x5b
	ld	(hl+), a
	ld	(hl), #0x39
;d:/Users/Alexander/Desktop/Gameboy_dev/gbdk/include/gb/gb.h:1218: OAM_item_t * itm = &shadow_OAM[nb];
	ld	hl, #(_shadow_OAM + 0x001c)
;d:/Users/Alexander/Desktop/Gameboy_dev/gbdk/include/gb/gb.h:1219: itm->y=y, itm->x=x;
	ld	a, #0x5b
	ld	(hl+), a
	ld	(hl), #0x41
;d:/Users/Alexander/Desktop/Gameboy_dev/gbdk/include/gb/gb.h:1218: OAM_item_t * itm = &shadow_OAM[nb];
	ld	hl, #(_shadow_OAM + 0x0020)
;d:/Users/Alexander/Desktop/Gameboy_dev/gbdk/include/gb/gb.h:1219: itm->y=y, itm->x=x;
	ld	a, #0x5b
	ld	(hl+), a
	ld	(hl), #0x49
;main.c:44: move_sprite(BOTTOM_RIGHT,   LocationX+16, LocationY);
;main.c:45: }
	ret
;main.c:47: void setSpriteData(){
;	---------------------------------
; Function setSpriteData
; ---------------------------------
_setSpriteData::
;main.c:48: UINT8 frameNr = frame - 1;
	ld	hl, #_frame
	ld	c, (hl)
	dec	c
;main.c:57: set_bkg_data(21, 1, TILESETBACKGROUND + 20 * 16);
	ld	hl, #(_TILESETBACKGROUND + 0x0140)
	push	hl
	ld	de, #0x0115
	push	de
	call	_set_bkg_data
	add	sp, #4
;main.c:58: set_bkg_data(22, 1, TILESETBACKGROUND + 20 * 16);
	ld	hl, #(_TILESETBACKGROUND + 0x0140)
	push	hl
	ld	de, #0x0116
	push	de
	call	_set_bkg_data
	add	sp, #4
;main.c:67: set_sprite_data(TOP_LEFT,       1, TILESETWALKER_1_25+(WALKER_TILEMAP[frameNr][TOP_LEFT     ] * 16));
	ld	b, #0x00
	ld	l, c
	ld	h, b
	add	hl, hl
	add	hl, hl
	add	hl, hl
	add	hl, bc
	ld	c, l
	ld	b, h
;main.c:61: if (frame < 26)
	ld	a, (#_frame)
	sub	a, #0x1a
	jp	NC, 00114$
;main.c:67: set_sprite_data(TOP_LEFT,       1, TILESETWALKER_1_25+(WALKER_TILEMAP[frameNr][TOP_LEFT     ] * 16));
	ld	hl, #_WALKER_TILEMAP
	add	hl, bc
	ld	c, l
	ld	b, h
	ld	a, (bc)
	ld	l, a
	ld	h, #0x00
	add	hl, hl
	add	hl, hl
	add	hl, hl
	add	hl, hl
	ld	de, #_TILESETWALKER_1_25
	add	hl, de
	push	hl
	ld	a, #0x01
	push	af
	inc	sp
	xor	a, a
	push	af
	inc	sp
	call	_set_sprite_data
	add	sp, #4
;main.c:68: set_sprite_data(TOP_MIDDLE,     1, TILESETWALKER_1_25+(WALKER_TILEMAP[frameNr][TOP_MIDDLE   ] * 16));
	ld	l, c
	ld	h, b
	inc	hl
	ld	l, (hl)
	ld	h, #0x00
	add	hl, hl
	add	hl, hl
	add	hl, hl
	add	hl, hl
	ld	de, #_TILESETWALKER_1_25
	add	hl, de
	push	hl
	ld	de, #0x0101
	push	de
	call	_set_sprite_data
	add	sp, #4
;main.c:69: set_sprite_data(TOP_RIGHT,      1, TILESETWALKER_1_25+(WALKER_TILEMAP[frameNr][TOP_RIGHT    ] * 16));
	ld	l, c
	ld	h, b
	inc	hl
	inc	hl
	ld	l, (hl)
	ld	h, #0x00
	add	hl, hl
	add	hl, hl
	add	hl, hl
	add	hl, hl
	ld	de, #_TILESETWALKER_1_25
	add	hl, de
	push	hl
	ld	de, #0x0102
	push	de
	call	_set_sprite_data
	add	sp, #4
;main.c:70: set_sprite_data(MIDDLE_LEFT,    1, TILESETWALKER_1_25+(WALKER_TILEMAP[frameNr][MIDDLE_LEFT  ] * 16));
	ld	l, c
	ld	h, b
	inc	hl
	inc	hl
	inc	hl
	ld	l, (hl)
	ld	h, #0x00
	add	hl, hl
	add	hl, hl
	add	hl, hl
	add	hl, hl
	ld	de, #_TILESETWALKER_1_25
	add	hl, de
	push	hl
	ld	de, #0x0103
	push	de
	call	_set_sprite_data
	add	sp, #4
;main.c:71: set_sprite_data(MIDDLE_MIDDLE,  1, TILESETWALKER_1_25+(WALKER_TILEMAP[frameNr][MIDDLE_MIDDLE] * 16));
	ld	hl, #0x0004
	add	hl, bc
	ld	l, (hl)
	ld	h, #0x00
	add	hl, hl
	add	hl, hl
	add	hl, hl
	add	hl, hl
	ld	de, #_TILESETWALKER_1_25
	add	hl, de
	push	hl
	ld	de, #0x0104
	push	de
	call	_set_sprite_data
	add	sp, #4
;main.c:72: set_sprite_data(MIDDLE_RIGHT,   1, TILESETWALKER_1_25+(WALKER_TILEMAP[frameNr][MIDDLE_RIGHT ] * 16));
	ld	hl, #0x0005
	add	hl, bc
	ld	l, (hl)
	ld	h, #0x00
	add	hl, hl
	add	hl, hl
	add	hl, hl
	add	hl, hl
	ld	de, #_TILESETWALKER_1_25
	add	hl, de
	push	hl
	ld	de, #0x0105
	push	de
	call	_set_sprite_data
	add	sp, #4
;main.c:73: set_sprite_data(BOTTOM_LEFT,    1, TILESETWALKER_1_25+(WALKER_TILEMAP[frameNr][BOTTOM_LEFT  ] * 16));
	ld	hl, #0x0006
	add	hl, bc
	ld	l, (hl)
	ld	h, #0x00
	add	hl, hl
	add	hl, hl
	add	hl, hl
	add	hl, hl
	ld	de, #_TILESETWALKER_1_25
	add	hl, de
	push	hl
	ld	de, #0x0106
	push	de
	call	_set_sprite_data
	add	sp, #4
;main.c:74: set_sprite_data(BOTTOM_MIDDLE,  1, TILESETWALKER_1_25+(WALKER_TILEMAP[frameNr][BOTTOM_MIDDLE] * 16));
	ld	hl, #0x0007
	add	hl, bc
	ld	l, (hl)
	ld	h, #0x00
	add	hl, hl
	add	hl, hl
	add	hl, hl
	add	hl, hl
	ld	de, #_TILESETWALKER_1_25
	add	hl, de
	push	hl
	ld	de, #0x0107
	push	de
	call	_set_sprite_data
	add	sp, #4
;main.c:75: set_sprite_data(BOTTOM_RIGHT,   1, TILESETWALKER_1_25+(WALKER_TILEMAP[frameNr][BOTTOM_RIGHT ] * 16));
	ld	hl, #0x0008
	add	hl, bc
	ld	l, (hl)
	ld	h, #0x00
	add	hl, hl
	add	hl, hl
	add	hl, hl
	add	hl, hl
	ld	de, #_TILESETWALKER_1_25
	add	hl, de
	push	hl
	ld	de, #0x0108
	push	de
	call	_set_sprite_data
	add	sp, #4
	ret
00114$:
;main.c:77: else if (frame < 51)
	ld	a, (#_frame)
	sub	a, #0x33
	jp	NC, 00111$
;main.c:83: set_sprite_data(TOP_LEFT,       1, TILESETWALKER_26_50+(WALKER_TILEMAP[frameNr][TOP_LEFT     ] * 16));
	ld	hl, #_WALKER_TILEMAP
	add	hl, bc
	ld	c, l
	ld	b, h
	ld	a, (bc)
	ld	l, a
	ld	h, #0x00
	add	hl, hl
	add	hl, hl
	add	hl, hl
	add	hl, hl
	ld	de, #_TILESETWALKER_26_50
	add	hl, de
	push	hl
	ld	a, #0x01
	push	af
	inc	sp
	xor	a, a
	push	af
	inc	sp
	call	_set_sprite_data
	add	sp, #4
;main.c:84: set_sprite_data(TOP_MIDDLE,     1, TILESETWALKER_26_50+(WALKER_TILEMAP[frameNr][TOP_MIDDLE   ] * 16));
	ld	l, c
	ld	h, b
	inc	hl
	ld	l, (hl)
	ld	h, #0x00
	add	hl, hl
	add	hl, hl
	add	hl, hl
	add	hl, hl
	ld	de, #_TILESETWALKER_26_50
	add	hl, de
	push	hl
	ld	de, #0x0101
	push	de
	call	_set_sprite_data
	add	sp, #4
;main.c:85: set_sprite_data(TOP_RIGHT,      1, TILESETWALKER_26_50+(WALKER_TILEMAP[frameNr][TOP_RIGHT    ] * 16));
	ld	l, c
	ld	h, b
	inc	hl
	inc	hl
	ld	l, (hl)
	ld	h, #0x00
	add	hl, hl
	add	hl, hl
	add	hl, hl
	add	hl, hl
	ld	de, #_TILESETWALKER_26_50
	add	hl, de
	push	hl
	ld	de, #0x0102
	push	de
	call	_set_sprite_data
	add	sp, #4
;main.c:86: set_sprite_data(MIDDLE_LEFT,    1, TILESETWALKER_26_50+(WALKER_TILEMAP[frameNr][MIDDLE_LEFT  ] * 16));
	ld	l, c
	ld	h, b
	inc	hl
	inc	hl
	inc	hl
	ld	l, (hl)
	ld	h, #0x00
	add	hl, hl
	add	hl, hl
	add	hl, hl
	add	hl, hl
	ld	de, #_TILESETWALKER_26_50
	add	hl, de
	push	hl
	ld	de, #0x0103
	push	de
	call	_set_sprite_data
	add	sp, #4
;main.c:87: set_sprite_data(MIDDLE_MIDDLE,  1, TILESETWALKER_26_50+(WALKER_TILEMAP[frameNr][MIDDLE_MIDDLE] * 16));
	ld	hl, #0x0004
	add	hl, bc
	ld	l, (hl)
	ld	h, #0x00
	add	hl, hl
	add	hl, hl
	add	hl, hl
	add	hl, hl
	ld	de, #_TILESETWALKER_26_50
	add	hl, de
	push	hl
	ld	de, #0x0104
	push	de
	call	_set_sprite_data
	add	sp, #4
;main.c:88: set_sprite_data(MIDDLE_RIGHT,   1, TILESETWALKER_26_50+(WALKER_TILEMAP[frameNr][MIDDLE_RIGHT ] * 16));
	ld	hl, #0x0005
	add	hl, bc
	ld	l, (hl)
	ld	h, #0x00
	add	hl, hl
	add	hl, hl
	add	hl, hl
	add	hl, hl
	ld	de, #_TILESETWALKER_26_50
	add	hl, de
	push	hl
	ld	de, #0x0105
	push	de
	call	_set_sprite_data
	add	sp, #4
;main.c:89: set_sprite_data(BOTTOM_LEFT,    1, TILESETWALKER_26_50+(WALKER_TILEMAP[frameNr][BOTTOM_LEFT  ] * 16));
	ld	hl, #0x0006
	add	hl, bc
	ld	l, (hl)
	ld	h, #0x00
	add	hl, hl
	add	hl, hl
	add	hl, hl
	add	hl, hl
	ld	de, #_TILESETWALKER_26_50
	add	hl, de
	push	hl
	ld	de, #0x0106
	push	de
	call	_set_sprite_data
	add	sp, #4
;main.c:90: set_sprite_data(BOTTOM_MIDDLE,  1, TILESETWALKER_26_50+(WALKER_TILEMAP[frameNr][BOTTOM_MIDDLE] * 16));
	ld	hl, #0x0007
	add	hl, bc
	ld	l, (hl)
	ld	h, #0x00
	add	hl, hl
	add	hl, hl
	add	hl, hl
	add	hl, hl
	ld	de, #_TILESETWALKER_26_50
	add	hl, de
	push	hl
	ld	de, #0x0107
	push	de
	call	_set_sprite_data
	add	sp, #4
;main.c:91: set_sprite_data(BOTTOM_RIGHT,   1, TILESETWALKER_26_50+(WALKER_TILEMAP[frameNr][BOTTOM_RIGHT ] * 16));
	ld	hl, #0x0008
	add	hl, bc
	ld	l, (hl)
	ld	h, #0x00
	add	hl, hl
	add	hl, hl
	add	hl, hl
	add	hl, hl
	ld	de, #_TILESETWALKER_26_50
	add	hl, de
	push	hl
	ld	de, #0x0108
	push	de
	call	_set_sprite_data
	add	sp, #4
	ret
00111$:
;main.c:93: else if (frame < 76)
	ld	a, (#_frame)
	sub	a, #0x4c
	jp	NC, 00108$
;main.c:99: set_sprite_data(TOP_LEFT,       1, TILESETWALKER_51_75+(WALKER_TILEMAP[frameNr][TOP_LEFT     ] * 16));
	ld	hl, #_WALKER_TILEMAP
	add	hl, bc
	ld	c, l
	ld	b, h
	ld	a, (bc)
	ld	l, a
	ld	h, #0x00
	add	hl, hl
	add	hl, hl
	add	hl, hl
	add	hl, hl
	ld	de, #_TILESETWALKER_51_75
	add	hl, de
	push	hl
	ld	a, #0x01
	push	af
	inc	sp
	xor	a, a
	push	af
	inc	sp
	call	_set_sprite_data
	add	sp, #4
;main.c:100: set_sprite_data(TOP_MIDDLE,     1, TILESETWALKER_51_75+(WALKER_TILEMAP[frameNr][TOP_MIDDLE   ] * 16));
	ld	l, c
	ld	h, b
	inc	hl
	ld	l, (hl)
	ld	h, #0x00
	add	hl, hl
	add	hl, hl
	add	hl, hl
	add	hl, hl
	ld	de, #_TILESETWALKER_51_75
	add	hl, de
	push	hl
	ld	de, #0x0101
	push	de
	call	_set_sprite_data
	add	sp, #4
;main.c:101: set_sprite_data(TOP_RIGHT,      1, TILESETWALKER_51_75+(WALKER_TILEMAP[frameNr][TOP_RIGHT    ] * 16));
	ld	l, c
	ld	h, b
	inc	hl
	inc	hl
	ld	l, (hl)
	ld	h, #0x00
	add	hl, hl
	add	hl, hl
	add	hl, hl
	add	hl, hl
	ld	de, #_TILESETWALKER_51_75
	add	hl, de
	push	hl
	ld	de, #0x0102
	push	de
	call	_set_sprite_data
	add	sp, #4
;main.c:102: set_sprite_data(MIDDLE_LEFT,    1, TILESETWALKER_51_75+(WALKER_TILEMAP[frameNr][MIDDLE_LEFT  ] * 16));
	ld	l, c
	ld	h, b
	inc	hl
	inc	hl
	inc	hl
	ld	l, (hl)
	ld	h, #0x00
	add	hl, hl
	add	hl, hl
	add	hl, hl
	add	hl, hl
	ld	de, #_TILESETWALKER_51_75
	add	hl, de
	push	hl
	ld	de, #0x0103
	push	de
	call	_set_sprite_data
	add	sp, #4
;main.c:103: set_sprite_data(MIDDLE_MIDDLE,  1, TILESETWALKER_51_75+(WALKER_TILEMAP[frameNr][MIDDLE_MIDDLE] * 16));
	ld	hl, #0x0004
	add	hl, bc
	ld	l, (hl)
	ld	h, #0x00
	add	hl, hl
	add	hl, hl
	add	hl, hl
	add	hl, hl
	ld	de, #_TILESETWALKER_51_75
	add	hl, de
	push	hl
	ld	de, #0x0104
	push	de
	call	_set_sprite_data
	add	sp, #4
;main.c:104: set_sprite_data(MIDDLE_RIGHT,   1, TILESETWALKER_51_75+(WALKER_TILEMAP[frameNr][MIDDLE_RIGHT ] * 16));
	ld	hl, #0x0005
	add	hl, bc
	ld	l, (hl)
	ld	h, #0x00
	add	hl, hl
	add	hl, hl
	add	hl, hl
	add	hl, hl
	ld	de, #_TILESETWALKER_51_75
	add	hl, de
	push	hl
	ld	de, #0x0105
	push	de
	call	_set_sprite_data
	add	sp, #4
;main.c:105: set_sprite_data(BOTTOM_LEFT,    1, TILESETWALKER_51_75+(WALKER_TILEMAP[frameNr][BOTTOM_LEFT  ] * 16));
	ld	hl, #0x0006
	add	hl, bc
	ld	l, (hl)
	ld	h, #0x00
	add	hl, hl
	add	hl, hl
	add	hl, hl
	add	hl, hl
	ld	de, #_TILESETWALKER_51_75
	add	hl, de
	push	hl
	ld	de, #0x0106
	push	de
	call	_set_sprite_data
	add	sp, #4
;main.c:106: set_sprite_data(BOTTOM_MIDDLE,  1, TILESETWALKER_51_75+(WALKER_TILEMAP[frameNr][BOTTOM_MIDDLE] * 16));
	ld	hl, #0x0007
	add	hl, bc
	ld	l, (hl)
	ld	h, #0x00
	add	hl, hl
	add	hl, hl
	add	hl, hl
	add	hl, hl
	ld	de, #_TILESETWALKER_51_75
	add	hl, de
	push	hl
	ld	de, #0x0107
	push	de
	call	_set_sprite_data
	add	sp, #4
;main.c:107: set_sprite_data(BOTTOM_RIGHT,   1, TILESETWALKER_51_75+(WALKER_TILEMAP[frameNr][BOTTOM_RIGHT ] * 16));
	ld	hl, #0x0008
	add	hl, bc
	ld	l, (hl)
	ld	h, #0x00
	add	hl, hl
	add	hl, hl
	add	hl, hl
	add	hl, hl
	ld	de, #_TILESETWALKER_51_75
	add	hl, de
	push	hl
	ld	de, #0x0108
	push	de
	call	_set_sprite_data
	add	sp, #4
	ret
00108$:
;main.c:109: else if (frame < 101)
	ld	a, (#_frame)
	sub	a, #0x65
	jp	NC, 00105$
;main.c:115: set_sprite_data(TOP_LEFT,       1, TILESETWALKER_76_100+(WALKER_TILEMAP[frameNr][TOP_LEFT     ] * 16));
	ld	hl, #_WALKER_TILEMAP
	add	hl, bc
	ld	c, l
	ld	b, h
	ld	a, (bc)
	ld	l, a
	ld	h, #0x00
	add	hl, hl
	add	hl, hl
	add	hl, hl
	add	hl, hl
	ld	de, #_TILESETWALKER_76_100
	add	hl, de
	push	hl
	ld	a, #0x01
	push	af
	inc	sp
	xor	a, a
	push	af
	inc	sp
	call	_set_sprite_data
	add	sp, #4
;main.c:116: set_sprite_data(TOP_MIDDLE,     1, TILESETWALKER_76_100+(WALKER_TILEMAP[frameNr][TOP_MIDDLE   ] * 16));
	ld	l, c
	ld	h, b
	inc	hl
	ld	l, (hl)
	ld	h, #0x00
	add	hl, hl
	add	hl, hl
	add	hl, hl
	add	hl, hl
	ld	de, #_TILESETWALKER_76_100
	add	hl, de
	push	hl
	ld	de, #0x0101
	push	de
	call	_set_sprite_data
	add	sp, #4
;main.c:117: set_sprite_data(TOP_RIGHT,      1, TILESETWALKER_76_100+(WALKER_TILEMAP[frameNr][TOP_RIGHT    ] * 16));
	ld	l, c
	ld	h, b
	inc	hl
	inc	hl
	ld	l, (hl)
	ld	h, #0x00
	add	hl, hl
	add	hl, hl
	add	hl, hl
	add	hl, hl
	ld	de, #_TILESETWALKER_76_100
	add	hl, de
	push	hl
	ld	de, #0x0102
	push	de
	call	_set_sprite_data
	add	sp, #4
;main.c:118: set_sprite_data(MIDDLE_LEFT,    1, TILESETWALKER_76_100+(WALKER_TILEMAP[frameNr][MIDDLE_LEFT  ] * 16));
	ld	l, c
	ld	h, b
	inc	hl
	inc	hl
	inc	hl
	ld	l, (hl)
	ld	h, #0x00
	add	hl, hl
	add	hl, hl
	add	hl, hl
	add	hl, hl
	ld	de, #_TILESETWALKER_76_100
	add	hl, de
	push	hl
	ld	de, #0x0103
	push	de
	call	_set_sprite_data
	add	sp, #4
;main.c:119: set_sprite_data(MIDDLE_MIDDLE,  1, TILESETWALKER_76_100+(WALKER_TILEMAP[frameNr][MIDDLE_MIDDLE] * 16));
	ld	hl, #0x0004
	add	hl, bc
	ld	l, (hl)
	ld	h, #0x00
	add	hl, hl
	add	hl, hl
	add	hl, hl
	add	hl, hl
	ld	de, #_TILESETWALKER_76_100
	add	hl, de
	push	hl
	ld	de, #0x0104
	push	de
	call	_set_sprite_data
	add	sp, #4
;main.c:120: set_sprite_data(MIDDLE_RIGHT,   1, TILESETWALKER_76_100+(WALKER_TILEMAP[frameNr][MIDDLE_RIGHT ] * 16));
	ld	hl, #0x0005
	add	hl, bc
	ld	l, (hl)
	ld	h, #0x00
	add	hl, hl
	add	hl, hl
	add	hl, hl
	add	hl, hl
	ld	de, #_TILESETWALKER_76_100
	add	hl, de
	push	hl
	ld	de, #0x0105
	push	de
	call	_set_sprite_data
	add	sp, #4
;main.c:121: set_sprite_data(BOTTOM_LEFT,    1, TILESETWALKER_76_100+(WALKER_TILEMAP[frameNr][BOTTOM_LEFT  ] * 16));
	ld	hl, #0x0006
	add	hl, bc
	ld	l, (hl)
	ld	h, #0x00
	add	hl, hl
	add	hl, hl
	add	hl, hl
	add	hl, hl
	ld	de, #_TILESETWALKER_76_100
	add	hl, de
	push	hl
	ld	de, #0x0106
	push	de
	call	_set_sprite_data
	add	sp, #4
;main.c:122: set_sprite_data(BOTTOM_MIDDLE,  1, TILESETWALKER_76_100+(WALKER_TILEMAP[frameNr][BOTTOM_MIDDLE] * 16));
	ld	hl, #0x0007
	add	hl, bc
	ld	l, (hl)
	ld	h, #0x00
	add	hl, hl
	add	hl, hl
	add	hl, hl
	add	hl, hl
	ld	de, #_TILESETWALKER_76_100
	add	hl, de
	push	hl
	ld	de, #0x0107
	push	de
	call	_set_sprite_data
	add	sp, #4
;main.c:123: set_sprite_data(BOTTOM_RIGHT,   1, TILESETWALKER_76_100+(WALKER_TILEMAP[frameNr][BOTTOM_RIGHT ] * 16));
	ld	hl, #0x0008
	add	hl, bc
	ld	l, (hl)
	ld	h, #0x00
	add	hl, hl
	add	hl, hl
	add	hl, hl
	add	hl, hl
	ld	de, #_TILESETWALKER_76_100
	add	hl, de
	push	hl
	ld	de, #0x0108
	push	de
	call	_set_sprite_data
	add	sp, #4
	ret
00105$:
;main.c:125: else if (frame < 126)
	ld	a, (#_frame)
	sub	a, #0x7e
	jp	NC, 00102$
;main.c:131: set_sprite_data(TOP_LEFT,       1, TILESETWALKER_101_125+(WALKER_TILEMAP[frameNr][TOP_LEFT     ] * 16));
	ld	hl, #_WALKER_TILEMAP
	add	hl, bc
	ld	c, l
	ld	b, h
	ld	a, (bc)
	ld	l, a
	ld	h, #0x00
	add	hl, hl
	add	hl, hl
	add	hl, hl
	add	hl, hl
	ld	de, #_TILESETWALKER_101_125
	add	hl, de
	push	hl
	ld	a, #0x01
	push	af
	inc	sp
	xor	a, a
	push	af
	inc	sp
	call	_set_sprite_data
	add	sp, #4
;main.c:132: set_sprite_data(TOP_MIDDLE,     1, TILESETWALKER_101_125+(WALKER_TILEMAP[frameNr][TOP_MIDDLE   ] * 16));
	ld	l, c
	ld	h, b
	inc	hl
	ld	l, (hl)
	ld	h, #0x00
	add	hl, hl
	add	hl, hl
	add	hl, hl
	add	hl, hl
	ld	de, #_TILESETWALKER_101_125
	add	hl, de
	push	hl
	ld	de, #0x0101
	push	de
	call	_set_sprite_data
	add	sp, #4
;main.c:133: set_sprite_data(TOP_RIGHT,      1, TILESETWALKER_101_125+(WALKER_TILEMAP[frameNr][TOP_RIGHT    ] * 16));
	ld	l, c
	ld	h, b
	inc	hl
	inc	hl
	ld	l, (hl)
	ld	h, #0x00
	add	hl, hl
	add	hl, hl
	add	hl, hl
	add	hl, hl
	ld	de, #_TILESETWALKER_101_125
	add	hl, de
	push	hl
	ld	de, #0x0102
	push	de
	call	_set_sprite_data
	add	sp, #4
;main.c:134: set_sprite_data(MIDDLE_LEFT,    1, TILESETWALKER_101_125+(WALKER_TILEMAP[frameNr][MIDDLE_LEFT  ] * 16));
	ld	l, c
	ld	h, b
	inc	hl
	inc	hl
	inc	hl
	ld	l, (hl)
	ld	h, #0x00
	add	hl, hl
	add	hl, hl
	add	hl, hl
	add	hl, hl
	ld	de, #_TILESETWALKER_101_125
	add	hl, de
	push	hl
	ld	de, #0x0103
	push	de
	call	_set_sprite_data
	add	sp, #4
;main.c:135: set_sprite_data(MIDDLE_MIDDLE,  1, TILESETWALKER_101_125+(WALKER_TILEMAP[frameNr][MIDDLE_MIDDLE] * 16));
	ld	hl, #0x0004
	add	hl, bc
	ld	l, (hl)
	ld	h, #0x00
	add	hl, hl
	add	hl, hl
	add	hl, hl
	add	hl, hl
	ld	de, #_TILESETWALKER_101_125
	add	hl, de
	push	hl
	ld	de, #0x0104
	push	de
	call	_set_sprite_data
	add	sp, #4
;main.c:136: set_sprite_data(MIDDLE_RIGHT,   1, TILESETWALKER_101_125+(WALKER_TILEMAP[frameNr][MIDDLE_RIGHT ] * 16));
	ld	hl, #0x0005
	add	hl, bc
	ld	l, (hl)
	ld	h, #0x00
	add	hl, hl
	add	hl, hl
	add	hl, hl
	add	hl, hl
	ld	de, #_TILESETWALKER_101_125
	add	hl, de
	push	hl
	ld	de, #0x0105
	push	de
	call	_set_sprite_data
	add	sp, #4
;main.c:137: set_sprite_data(BOTTOM_LEFT,    1, TILESETWALKER_101_125+(WALKER_TILEMAP[frameNr][BOTTOM_LEFT  ] * 16));
	ld	hl, #0x0006
	add	hl, bc
	ld	l, (hl)
	ld	h, #0x00
	add	hl, hl
	add	hl, hl
	add	hl, hl
	add	hl, hl
	ld	de, #_TILESETWALKER_101_125
	add	hl, de
	push	hl
	ld	de, #0x0106
	push	de
	call	_set_sprite_data
	add	sp, #4
;main.c:138: set_sprite_data(BOTTOM_MIDDLE,  1, TILESETWALKER_101_125+(WALKER_TILEMAP[frameNr][BOTTOM_MIDDLE] * 16));
	ld	hl, #0x0007
	add	hl, bc
	ld	l, (hl)
	ld	h, #0x00
	add	hl, hl
	add	hl, hl
	add	hl, hl
	add	hl, hl
	ld	de, #_TILESETWALKER_101_125
	add	hl, de
	push	hl
	ld	de, #0x0107
	push	de
	call	_set_sprite_data
	add	sp, #4
;main.c:139: set_sprite_data(BOTTOM_RIGHT,   1, TILESETWALKER_101_125+(WALKER_TILEMAP[frameNr][BOTTOM_RIGHT ] * 16));
	ld	hl, #0x0008
	add	hl, bc
	ld	l, (hl)
	ld	h, #0x00
	add	hl, hl
	add	hl, hl
	add	hl, hl
	add	hl, hl
	ld	de, #_TILESETWALKER_101_125
	add	hl, de
	push	hl
	ld	de, #0x0108
	push	de
	call	_set_sprite_data
	add	sp, #4
	ret
00102$:
;main.c:147: set_sprite_data(TOP_LEFT,       1, TILESETWALKER_126_150+(WALKER_TILEMAP[frameNr][TOP_LEFT     ] * 16));
	ld	hl, #_WALKER_TILEMAP
	add	hl, bc
	ld	c, l
	ld	b, h
	ld	a, (bc)
	ld	l, a
	ld	h, #0x00
	add	hl, hl
	add	hl, hl
	add	hl, hl
	add	hl, hl
	ld	de, #_TILESETWALKER_126_150
	add	hl, de
	push	hl
	ld	a, #0x01
	push	af
	inc	sp
	xor	a, a
	push	af
	inc	sp
	call	_set_sprite_data
	add	sp, #4
;main.c:148: set_sprite_data(TOP_MIDDLE,     1, TILESETWALKER_126_150+(WALKER_TILEMAP[frameNr][TOP_MIDDLE   ] * 16));
	ld	l, c
	ld	h, b
	inc	hl
	ld	l, (hl)
	ld	h, #0x00
	add	hl, hl
	add	hl, hl
	add	hl, hl
	add	hl, hl
	ld	de, #_TILESETWALKER_126_150
	add	hl, de
	push	hl
	ld	de, #0x0101
	push	de
	call	_set_sprite_data
	add	sp, #4
;main.c:149: set_sprite_data(TOP_RIGHT,      1, TILESETWALKER_126_150+(WALKER_TILEMAP[frameNr][TOP_RIGHT    ] * 16));
	ld	l, c
	ld	h, b
	inc	hl
	inc	hl
	ld	l, (hl)
	ld	h, #0x00
	add	hl, hl
	add	hl, hl
	add	hl, hl
	add	hl, hl
	ld	de, #_TILESETWALKER_126_150
	add	hl, de
	push	hl
	ld	de, #0x0102
	push	de
	call	_set_sprite_data
	add	sp, #4
;main.c:150: set_sprite_data(MIDDLE_LEFT,    1, TILESETWALKER_126_150+(WALKER_TILEMAP[frameNr][MIDDLE_LEFT  ] * 16));
	ld	l, c
	ld	h, b
	inc	hl
	inc	hl
	inc	hl
	ld	l, (hl)
	ld	h, #0x00
	add	hl, hl
	add	hl, hl
	add	hl, hl
	add	hl, hl
	ld	de, #_TILESETWALKER_126_150
	add	hl, de
	push	hl
	ld	de, #0x0103
	push	de
	call	_set_sprite_data
	add	sp, #4
;main.c:151: set_sprite_data(MIDDLE_MIDDLE,  1, TILESETWALKER_126_150+(WALKER_TILEMAP[frameNr][MIDDLE_MIDDLE] * 16));
	ld	hl, #0x0004
	add	hl, bc
	ld	l, (hl)
	ld	h, #0x00
	add	hl, hl
	add	hl, hl
	add	hl, hl
	add	hl, hl
	ld	de, #_TILESETWALKER_126_150
	add	hl, de
	push	hl
	ld	de, #0x0104
	push	de
	call	_set_sprite_data
	add	sp, #4
;main.c:152: set_sprite_data(MIDDLE_RIGHT,   1, TILESETWALKER_126_150+(WALKER_TILEMAP[frameNr][MIDDLE_RIGHT ] * 16));
	ld	hl, #0x0005
	add	hl, bc
	ld	l, (hl)
	ld	h, #0x00
	add	hl, hl
	add	hl, hl
	add	hl, hl
	add	hl, hl
	ld	de, #_TILESETWALKER_126_150
	add	hl, de
	push	hl
	ld	de, #0x0105
	push	de
	call	_set_sprite_data
	add	sp, #4
;main.c:153: set_sprite_data(BOTTOM_LEFT,    1, TILESETWALKER_126_150+(WALKER_TILEMAP[frameNr][BOTTOM_LEFT  ] * 16));
	ld	hl, #0x0006
	add	hl, bc
	ld	l, (hl)
	ld	h, #0x00
	add	hl, hl
	add	hl, hl
	add	hl, hl
	add	hl, hl
	ld	de, #_TILESETWALKER_126_150
	add	hl, de
	push	hl
	ld	de, #0x0106
	push	de
	call	_set_sprite_data
	add	sp, #4
;main.c:154: set_sprite_data(BOTTOM_MIDDLE,  1, TILESETWALKER_126_150+(WALKER_TILEMAP[frameNr][BOTTOM_MIDDLE] * 16));
	ld	hl, #0x0007
	add	hl, bc
	ld	l, (hl)
	ld	h, #0x00
	add	hl, hl
	add	hl, hl
	add	hl, hl
	add	hl, hl
	ld	de, #_TILESETWALKER_126_150
	add	hl, de
	push	hl
	ld	de, #0x0107
	push	de
	call	_set_sprite_data
	add	sp, #4
;main.c:155: set_sprite_data(BOTTOM_RIGHT,   1, TILESETWALKER_126_150+(WALKER_TILEMAP[frameNr][BOTTOM_RIGHT ] * 16));
	ld	hl, #0x0008
	add	hl, bc
	ld	l, (hl)
	ld	h, #0x00
	add	hl, hl
	add	hl, hl
	add	hl, hl
	add	hl, hl
	ld	de, #_TILESETWALKER_126_150
	add	hl, de
	push	hl
	ld	de, #0x0108
	push	de
	call	_set_sprite_data
	add	sp, #4
;main.c:157: }
	ret
;main.c:159: void main(){
;	---------------------------------
; Function main
; ---------------------------------
_main::
;main.c:160: setSpriteData();
	call	_setSpriteData
;d:/Users/Alexander/Desktop/Gameboy_dev/gbdk/include/gb/gb.h:1145: shadow_OAM[nb].tile=tile;
	ld	hl, #(_shadow_OAM + 0x0002)
	ld	(hl), #0x00
	ld	hl, #(_shadow_OAM + 0x0006)
	ld	(hl), #0x01
	ld	hl, #(_shadow_OAM + 0x000a)
	ld	(hl), #0x02
	ld	hl, #(_shadow_OAM + 0x000e)
	ld	(hl), #0x03
	ld	hl, #(_shadow_OAM + 0x0012)
	ld	(hl), #0x04
	ld	hl, #(_shadow_OAM + 0x0016)
	ld	(hl), #0x05
	ld	hl, #(_shadow_OAM + 0x001a)
	ld	(hl), #0x06
	ld	hl, #(_shadow_OAM + 0x001e)
	ld	(hl), #0x07
	ld	hl, #(_shadow_OAM + 0x0022)
	ld	(hl), #0x08
;main.c:172: set_bkg_data(0, TILESET_TILE_COUNT, TILESETBACKGROUND);
	ld	hl, #_TILESETBACKGROUND
	push	hl
	ld	a, #0x15
	push	af
	inc	sp
	xor	a, a
	push	af
	inc	sp
	call	_set_bkg_data
	add	sp, #4
;main.c:173: set_bkg_data(TILESET_TILE_COUNT, 20, TILESETSLED);
	ld	hl, #_TILESETSLED
	push	hl
	ld	de, #0x1415
	push	de
	call	_set_bkg_data
	add	sp, #4
;main.c:174: set_bkg_tiles(0, 0, TILEMAP_WIDTH, TILEMAP_HEIGHT, BACKGROUNDTILEMAP);
	ld	hl, #_BACKGROUNDTILEMAP
	push	hl
	ld	de, #0x1214
	push	de
	xor	a, a
	push	af
	inc	sp
	xor	a, a
	push	af
	inc	sp
	call	_set_bkg_tiles
	add	sp, #6
;main.c:176: setSpritePosition();
	call	_setSpritePosition
;main.c:178: DISPLAY_ON;						// Turn on the display
	ldh	a, (_LCDC_REG+0)
	or	a, #0x80
	ldh	(_LCDC_REG+0),a
;main.c:179: SHOW_SPRITES;
	ldh	a, (_LCDC_REG+0)
	or	a, #0x02
	ldh	(_LCDC_REG+0),a
;main.c:180: SHOW_BKG;
	ldh	a, (_LCDC_REG+0)
	or	a, #0x01
	ldh	(_LCDC_REG+0),a
;main.c:182: while(1){
00104$:
;main.c:183: if (frame > 150)
	ld	a, #0x96
	ld	hl, #_frame
	sub	a, (hl)
	jr	NC, 00102$
;main.c:185: frame = 1;
	ld	(hl), #0x01
00102$:
;main.c:188: setSpriteData();
	call	_setSpriteData
;main.c:189: frame++;
	ld	hl, #_frame
	inc	(hl)
;main.c:191: performantdelay(2);
	ld	a, #0x02
	push	af
	inc	sp
	call	_performantdelay
	inc	sp
;main.c:193: }
	jr	00104$
	.area _CODE
	.area _CABS (ABS)
